(dp0
(I2
I2
I3
I0
I1
I0
I0
tp1
ccollections
defaultdict
p2
(c__builtin__
float
p3
tp4
Rp5
S'attaquant'
p6
F-31.70479461258084
sS'fonce_Strat'
p7
F-59.13602091594463
sS'evite'
p8
F-0.008102840664369329
sS'goal'
p9
F-73.77190591454692
ss(I1
I2
I3
I1
I2
I0
I0
tp10
g2
(g3
tp11
Rp12
S'attaquant'
p13
F58.64531876250289
sS'fonce_Strat'
p14
F-78.9476173399302
sS'evite'
p15
F195.49640058105527
sS'goal'
p16
F-66.72894916613627
ss(I1
I3
I3
I0
I2
I0
I0
tp17
g2
(g3
tp18
Rp19
S'attaquant'
p20
F-62.51621596237662
sS'goal'
p21
F-56.61286139480511
sS'evite'
p22
F46.25783664828758
sS'fonce_Strat'
p23
F104.70659708340752
ss(I0
I0
I3
I0
I0
I0
I0
tp24
g2
(g3
tp25
Rp26
S'attaquant'
p27
F5.911017780699154
sS'fonce_Strat'
p28
F1.7381165040704905
sS'evite'
p29
F7.547924849643091e-17
sg9
F6.24396658431441
ss(I3
I2
I3
I1
I1
I0
I0
tp30
g2
(g3
tp31
Rp32
S'attaquant'
p33
F-14.781747200000005
sS'fonce_Strat'
p34
F16.384
sS'evite'
p35
F9.93508572263492
sg9
F2.371868572545348
ss(I1
I1
I3
I1
I3
I0
I0
tp36
g2
(g3
tp37
Rp38
S'attaquant'
p39
F259.13648020824564
sS'fonce_Strat'
p40
F28.24329713830882
sS'evite'
p41
F215.2441307076965
sg9
F1.3839731691543624
ss(I1
I3
I2
I3
I1
I0
I0
tp42
g2
(g3
tp43
Rp44
S'attaquant'
p45
F25.956971903934928
sS'goal'
p46
F-60.27712995591666
sS'evite'
p47
F120.25205218977287
sS'fonce_Strat'
p48
F-63.998138150654114
ss(I2
I1
I3
I1
I2
I0
I0
tp49
g2
(g3
tp50
Rp51
S'attaquant'
p52
F0.7743199485140551
sS'fonce_Strat'
p53
F-91.30903585891362
sS'evite'
p54
F14.299101834823212
sS'goal'
p55
F166.5307389154995
ss(I1
I3
I0
I3
I1
I0
I0
tp56
g2
(g3
tp57
Rp58
S'attaquant'
p59
F2.449961828203535
sS'goal'
p60
F-44.25861599108549
sS'evite'
p61
F2.5500343055945818
sS'fonce_Strat'
p62
F-47.17921541481605
ss(I1
I3
I3
I3
I2
I0
I0
tp63
g2
(g3
tp64
Rp65
S'attaquant'
p66
F3.676107996057668
sS'goal'
p67
F-20.0
sS'evite'
p68
F-264.79046435570825
sS'fonce_Strat'
p69
F4.397315760287499
ss(I0
I3
I3
I1
I1
I0
I0
tp70
g2
(g3
tp71
Rp72
S'attaquant'
p73
F399.99997942076345
sS'fonce_Strat'
p74
F-246.39999439633138
sS'evite'
p75
F226.8923712731928
sg9
F-98.53927962065352
ss(I2
I3
I0
I2
I3
I0
I0
tp76
g2
(g3
tp77
Rp78
S'attaquant'
p79
F-13.974323060667132
sS'goal'
p80
F-2.1491758864512676
sS'evite'
p81
F1.442709620348721
sS'fonce_Strat'
p82
F-64.40100210341936
ss(I1
I3
I2
I0
I1
I0
I0
tp83
g2
(g3
tp84
Rp85
S'attaquant'
p86
F-93.61160193366787
sS'goal'
p87
F32.66732638827558
sS'evite'
p88
F-41.91999723930145
sS'fonce_Strat'
p89
F194.3106024272127
ss(I3
I3
I1
I2
I3
I0
I0
tp90
g2
(g3
tp91
Rp92
g79
F-17.196507197834585
sg82
F1.0187157030029006
sg81
F2.0960335650746904
sS'goal'
p93
F1.9251581775122582
ss(I0
I3
I0
I0
I0
I0
I0
tp94
g2
(g3
tp95
Rp96
S'attaquant'
p97
F-199.80066665125537
sS'fonce_Strat'
p98
F-0.819684699885365
sS'evite'
p99
F-91.4100575175408
sS'goal'
p100
F-256.01610295835724
ss(I1
I3
I1
I1
I2
I0
I0
tp101
g2
(g3
tp102
Rp103
S'attaquant'
p104
F-40.562065408000066
sS'fonce_Strat'
p105
F-275.8377408749352
sS'evite'
p106
F138.52823462003425
sS'goal'
p107
F-77.53914559371434
ss(I2
I3
I3
I1
I2
I0
I0
tp108
g2
(g3
tp109
Rp110
S'attaquant'
p111
F4.894789793585616
sS'fonce_Strat'
p112
F-3.497805752629521
sS'evite'
p113
F355.976585216
sg9
F-178.52516352
ss(I2
I2
I3
I0
I2
I0
I0
tp114
g2
(g3
tp115
Rp116
S'attaquant'
p117
F314.68340194320774
sS'fonce_Strat'
p118
F-152.70100201016572
sS'evite'
p119
F-197.1176962384829
sg9
F-51.120771837485734
ss(I1
I2
I3
I1
I3
I0
I0
tp120
g2
(g3
tp121
Rp122
S'attaquant'
p123
F147.6692090826944
sS'fonce_Strat'
p124
F73.787422416868
sS'evite'
p125
F49.75175543220063
sg9
F4.760078954358319
ss(I3
I1
I3
I0
I3
I0
I0
tp126
g2
(g3
tp127
Rp128
S'attaquant'
p129
F6.646016013306169
sS'fonce_Strat'
p130
F0.0
sS'evite'
p131
F-87.67433866056791
sg9
F8.589775938710787
ss(I0
I0
I3
I0
I1
I0
I0
tp132
g2
(g3
tp133
Rp134
S'attaquant'
p135
F0.0
sg82
F5.627641481211247
sS'evite'
p136
F0.0
sg93
F4.433174474311864
ss(I2
I0
I3
I1
I3
I0
I0
tp137
g2
(g3
tp138
Rp139
S'attaquant'
p140
F1.4173714952307865
sS'fonce_Strat'
p141
F6.1046111187467185
sg35
F4.911183955879184
sg9
F8.520761081964825
ss(I3
I3
I2
I2
I2
I0
I0
tp142
g2
(g3
tp143
Rp144
g59
F-67.21879225262258
sg62
F-34.59572829230607
sg61
F0.006104365930371789
sS'goal'
p145
F-19.980836914266728
ss(I3
I2
I3
I1
I2
I0
I0
tp146
g2
(g3
tp147
Rp148
S'attaquant'
p149
F-64.15076587979203
sS'fonce_Strat'
p150
F0.21457184854489628
sg35
F0.020241628099913228
sg9
F0.3567445077177225
ss(I1
I1
I3
I1
I2
I0
I0
tp151
g2
(g3
tp152
Rp153
S'attaquant'
p154
F-195.59834663244217
sS'fonce_Strat'
p155
F40.804799155925686
sS'evite'
p156
F-113.49337363209763
sg9
F-12.014718661530573
ss(I2
I1
I3
I1
I3
I0
I0
tp157
g2
(g3
tp158
Rp159
S'attaquant'
p160
F-161.57587173942807
sS'goal'
p161
F40.0
sS'evite'
p162
F-85.05708573639843
sS'fonce_Strat'
p163
F-371.3426268786772
ss(I1
I3
I0
I3
I2
I0
I0
tp164
g2
(g3
tp165
Rp166
g59
F-53.607603485867955
sS'goal'
p167
F-95.601953488896
sg61
F-37.39338754546374
sg62
F-27.51085703553762
ss(I3
I3
I0
I3
I0
I0
I0
tp168
g2
(g3
tp169
Rp170
g140
F-223.0228156222541
sS'goal'
p171
F-399.69662244958516
sg35
F-166.3483472716701
sg141
F-80.71287953518383
ss(I3
I3
I2
I3
I0
I0
I0
tp172
g2
(g3
tp173
Rp174
g140
F-5.025321490593109
sg141
F-285.44042901140824
sg35
F-159.9009654894055
sg9
F-196.3577687871396
ss(I2
I3
I0
I2
I0
I0
I0
tp175
g2
(g3
tp176
Rp177
g140
F-299.9905721696396
sS'goal'
p178
F-186.72952206573294
sg35
F-283.65833163734555
sg141
F-155.36129630907288
ss(I1
I3
I2
I0
I0
I0
I0
tp179
g2
(g3
tp180
Rp181
S'attaquant'
p182
F-127.4100668192161
sS'fonce_Strat'
p183
F-82.88155654613972
sS'evite'
p184
F-158.39593275768078
sS'goal'
p185
F-101.15638371602378
ss(I2
I3
I2
I2
I0
I0
I0
tp186
g2
(g3
tp187
Rp188
g140
F-132.20478506593292
sg141
F-973.4633431640044
sg35
F-317.033593690748
sg9
F-162.322595923295
ss(I0
I1
I3
I0
I0
I0
I0
tp189
g2
(g3
tp190
Rp191
S'attaquant'
p192
F-81.61123273642498
sS'goal'
p193
F265.65118645306643
sS'evite'
p194
F-15.364592277283855
sS'fonce_Strat'
p195
F-32.36998509369044
ss(I3
I0
I3
I1
I2
I0
I0
tp196
g2
(g3
tp197
Rp198
S'fonce_Strat'
p199
F40.0
ss(I1
I3
I1
I1
I1
I0
I0
tp200
g2
(g3
tp201
Rp202
S'attaquant'
p203
F51.03512271228307
sS'fonce_Strat'
p204
F-26.54289788882135
sS'evite'
p205
F71.70954202592864
sS'goal'
p206
F-158.642065408
ss(I2
I3
I3
I1
I3
I0
I0
tp207
g2
(g3
tp208
Rp209
g140
F-199.92020044597803
sS'fonce_Strat'
p210
F-130.73270745543476
sS'evite'
p211
F-299.8059850641783
sg9
F0.09855740155014261
ss(I2
I2
I3
I0
I3
I0
I0
tp212
g2
(g3
tp213
Rp214
g79
F7.643291390519181
sS'fonce_Strat'
p215
F-20.0
sg81
F-43.81981005975865
sg93
F9.479592508533193
ss(I1
I2
I3
I1
I0
I0
I0
tp216
g2
(g3
tp217
Rp218
S'attaquant'
p219
F-71.91157100851237
sS'fonce_Strat'
p220
F-43.109751381415265
sS'evite'
p221
F1.044962497372858
sS'goal'
p222
F-70.92589560841749
ss(I0
I1
I3
I1
I2
I0
I0
tp223
g2
(g3
tp224
Rp225
g140
F41.054711914641764
sg141
F2.00912036138366
sS'evite'
p226
F246.76564210323363
sg9
F3.5565566413780836
ss(I2
I0
I3
I1
I2
I0
I0
tp227
g2
(g3
tp228
Rp229
S'attaquant'
p230
F40.0
sS'fonce_Strat'
p231
F20.0
sS'evite'
p232
F20.0
sg9
F9.041215045780309
ss(I2
I3
I1
I2
I3
I0
I0
tp233
g2
(g3
tp234
Rp235
g59
F4.278994156986209
sS'goal'
p236
F-99.92680698981097
sg61
F1.7259412933930243
sg62
F-15.954076530648132
ss(I3
I2
I3
I1
I3
I0
I0
tp237
g2
(g3
tp238
Rp239
S'attaquant'
p240
F6.196901211164252
sS'fonce_Strat'
p241
F30.22848
sg35
F1.2709632588919162
sg9
F1.1592122204404625
ss(I1
I1
I3
I1
I1
I0
I0
tp242
g2
(g3
tp243
Rp244
S'attaquant'
p245
F-73.34217306755647
sS'goal'
p246
F0.10051530678827733
sS'evite'
p247
F164.19496020951607
sS'fonce_Strat'
p248
F-5.9445025998545535
ss(I2
I3
I2
I3
I3
I0
I0
tp249
g2
(g3
tp250
Rp251
S'attaquant'
p252
F196.40987732057178
sS'fonce_Strat'
p253
F96.48577035813489
sS'evite'
p254
F125.17064630134692
sg9
F6.961753917927883
ss(I3
I3
I3
I2
I2
I0
I0
tp255
g2
(g3
tp256
Rp257
g140
F-99.99854455903505
sg141
F12.037993689224212
sg35
F1.1442109049095504
sg9
F4.2399187776441283e-14
ss(I3
I3
I0
I3
I1
I0
I0
tp258
g2
(g3
tp259
Rp260
g140
F-154.27205389471243
sS'goal'
p261
F-223.25130485114272
sg35
F-8.952121465384842
sg141
F-973.4633431581109
ss(I3
I3
I2
I3
I1
I0
I0
tp262
g2
(g3
tp263
Rp264
g140
F-177.1719579529356
sg141
F-91.41006540800001
sg35
F-28.8
sg9
F-95.73795764360264
ss(I2
I3
I0
I2
I1
I0
I0
tp265
g2
(g3
tp266
Rp267
g140
F-172.5515826143481
sS'goal'
p268
F-36.9947579505925
sg35
F-199.0733017110415
sg141
F-179.22957946688388
ss(I2
I3
I2
I2
I1
I0
I0
tp269
g2
(g3
tp270
Rp271
g140
F-75.38693646886624
sg141
F-312.72572339313314
sg35
F-238.9198110954158
sg9
F-158.64763589149237
ss(I2
I3
I2
I3
I1
I0
I0
tp272
g2
(g3
tp273
Rp274
g140
F-184.33053062815878
sg141
F-71.27545119895981
sg35
F-456.7717706434079
sg9
F-283.3878661107456
ss(I2
I3
I3
I3
I3
I0
I0
tp275
g2
(g3
tp276
Rp277
S'attaquant'
p278
F21.995672075660714
sS'fonce_Strat'
p279
F196.32682028620613
sg35
F48.80068408019207
sg9
F0.005516171884288565
ss(I1
I3
I1
I1
I0
I0
I0
tp280
g2
(g3
tp281
Rp282
S'attaquant'
p283
F126.85394363251041
sS'fonce_Strat'
p284
F-99.91280618962703
sS'evite'
p285
F-47.58932001213951
sS'goal'
p286
F-91.10493748704445
ss(I2
I3
I3
I1
I0
I0
I0
tp287
g2
(g3
tp288
Rp289
g140
F-0.4126983467868389
sS'fonce_Strat'
p290
F-71.11157497444381
sg35
F-188.28616348554652
sg9
F-116.42000565533792
ss(I2
I3
I0
I1
I1
I0
I0
tp291
g2
(g3
tp292
Rp293
g140
F-101.02499291407506
sS'goal'
p294
F-195.53655785628376
sg35
F0.045359515851562
sS'fonce_Strat'
p295
F-135.522099057232
ss(I1
I2
I3
I1
I1
I0
I0
tp296
g2
(g3
tp297
Rp298
S'attaquant'
p299
F-21.957350750199744
sS'fonce_Strat'
p300
F1.3795149776972734e-06
sS'evite'
p301
F-18.719607110177307
sS'goal'
p302
F-79.52876689313328
ss(I3
I3
I3
I1
I2
I0
I0
tp303
g2
(g3
tp304
Rp305
g140
F-89.25989224244313
sg141
F-49.53587445796529
sg35
F28.838403613454552
sg9
F-12.275395987808615
ss(I2
I0
I3
I1
I1
I0
I0
tp306
g2
(g3
tp307
Rp308
S'attaquant'
p309
F28.158419477620328
sS'fonce_Strat'
p310
F108.0
sS'evite'
p311
F207.07259235288785
sg9
F9.353410242463742
ss(I2
I3
I1
I2
I2
I0
I0
tp312
g2
(g3
tp313
Rp314
g140
F145.66611253200696
sS'goal'
p315
F-89.26311008321879
sg35
F-99.97934088794328
sg141
F-147.57120127472385
ss(I1
I3
I1
I0
I2
I0
I0
tp316
g2
(g3
tp317
Rp318
S'attaquant'
p319
F-42.222792196130996
sS'goal'
p320
F-13.985763539085903
sS'evite'
p321
F-52.98686206629716
sS'fonce_Strat'
p322
F-55.41000557937416
ss(I3
I3
I0
I3
I3
I0
I0
tp323
g2
(g3
tp324
Rp325
g140
F-17.353317574430754
sS'goal'
p326
F-64.08895787798238
sg35
F-439.0217958064128
sg141
F-239.70567492524043
ss(I0
I3
I1
I0
I1
I0
I0
tp327
g2
(g3
tp328
Rp329
S'attaquant'
p330
F-98.55993924742855
sS'goal'
p331
F-45.83866442637961
sS'evite'
p332
F-99.13599793064473
sS'fonce_Strat'
p333
F-62.417496806041946
ss(I0
I2
I3
I1
I2
I0
I0
tp334
g2
(g3
tp335
Rp336
S'attaquant'
p337
F21.773852198214566
sS'fonce_Strat'
p338
F19.095257664716797
sS'evite'
p339
F29.485650494195642
sg9
F2.0678873531864355
ss(I1
I2
I3
I2
I1
I0
I0
tp340
g2
(g3
tp341
Rp342
S'attaquant'
p343
F-131.02999912287288
sS'goal'
p344
F8.445425115725827
sS'evite'
p345
F-22.931173825076545
sS'fonce_Strat'
p346
F-83.1867451959509
ss(I1
I1
I3
I1
I0
I0
I0
tp347
g2
(g3
tp348
Rp349
S'attaquant'
p350
F13.5317627228047
sS'goal'
p351
F0.019170355894446964
sS'evite'
p352
F380.2172901225275
sS'fonce_Strat'
p353
F-66.43368504519164
ss(I3
I3
I3
I3
I1
I0
I0
tp354
g2
(g3
tp355
Rp356
g140
F5.744246767555204e-07
sg141
F4.416287251527054e-10
sg35
F1.2176293508494441e-10
sg9
F0.0028532866335914085
ss(I3
I3
I2
I3
I2
I0
I0
tp357
g2
(g3
tp358
Rp359
g79
F6.272467653322092
sg82
F8.42353430416761
sg81
F7.1670724955736045
sg93
F2.988835603969104
ss(I1
I1
I3
I0
I2
I0
I0
tp360
g2
(g3
tp361
Rp362
S'attaquant'
p363
F-12.801576805558934
sS'fonce_Strat'
p364
F48.47610564772314
sS'evite'
p365
F-19.68587830502701
sg9
F98.65513692406537
ss(I1
I3
I2
I0
I2
I0
I0
tp366
g2
(g3
tp367
Rp368
S'attaquant'
p369
F-159.0233846500527
sS'goal'
p370
F-81.16488372224
sS'evite'
p371
F-55.514985219068606
sS'fonce_Strat'
p372
F-24.41292051319941
ss(I2
I3
I2
I2
I2
I0
I0
tp373
g2
(g3
tp374
Rp375
g79
F-43.94816206557861
sg82
F3.776097218710184
sg81
F5.194507722612916
sg93
F4.27632296844682
ss(I2
I3
I3
I1
I1
I0
I0
tp376
g2
(g3
tp377
Rp378
S'attaquant'
p379
F-52.76790180026842
sS'fonce_Strat'
p380
F-142.80180369021508
sg35
F-246.3999501050651
sg9
F-59.040000456493395
ss(I2
I3
I0
I1
I0
I0
I0
tp381
g2
(g3
tp382
Rp383
g140
F-18.148763507284617
sS'goal'
p384
F-471.84793559921656
sg35
F-35.5078788190647
sg141
F-70.23243532528605
ss(I1
I3
I2
I1
I0
I0
I0
tp385
g2
(g3
tp386
Rp387
S'attaquant'
p388
F-24.384754143305948
sS'fonce_Strat'
p389
F-178.93268401187626
sS'evite'
p390
F-22.03058176
sS'goal'
p391
F-74.60275444433113
ss(I0
I1
I3
I1
I0
I0
I0
tp392
g2
(g3
tp393
Rp394
S'attaquant'
p395
F43.37448248323135
sS'fonce_Strat'
p396
F18.451199477469466
sS'evite'
p397
F241.07658530629982
sg9
F28.775082322337948
ss(I3
I2
I3
I0
I3
I0
I0
tp398
g2
(g3
tp399
Rp400
g59
F1.176959145359433
sS'fonce_Strat'
p401
F0.0
sg61
F-18.667534504416814
sg145
F0.31563575219831325
ss(I0
I3
I2
I3
I3
I0
I0
tp402
g2
(g3
tp403
Rp404
g140
F21.48212489259796
sg141
F2.6633344550970537
sg35
F132.02468190161076
sg9
F5.573362897060057
ss(I2
I0
I3
I1
I0
I0
I0
tp405
g2
(g3
tp406
Rp407
S'attaquant'
p408
F0.0
sS'fonce_Strat'
p409
F0.0
ss(I2
I3
I1
I2
I1
I0
I0
tp410
g2
(g3
tp411
Rp412
g140
F-81.1666245820714
sS'goal'
p413
F-207.27882528700337
sg35
F-187.01240623434484
sg141
F-159.99992153963797
ss(I2
I3
I3
I2
I1
I0
I0
tp414
g2
(g3
tp415
Rp416
S'attaquant'
p417
F-262.7559576255852
sS'fonce_Strat'
p418
F-182.72376341566886
sS'evite'
p419
F-5.8735290130507884
sg9
F-379.1092790724098
ss(I0
I3
I1
I0
I0
I0
I0
tp420
g2
(g3
tp421
Rp422
S'attaquant'
p423
F-89.26259431420347
sS'goal'
p424
F-117.73692260191206
sS'evite'
p425
F-136.1962553795253
sS'fonce_Strat'
p426
F-40.75319862324671
ss(I0
I2
I3
I1
I1
I0
I0
tp427
g2
(g3
tp428
Rp429
S'attaquant'
p430
F0.00029392354601239743
sS'goal'
p431
F-80.97731607649735
sS'evite'
p432
F399.98655449062085
sS'fonce_Strat'
p433
F-37.785599999720034
ss(I1
I2
I3
I2
I0
I0
I0
tp434
g2
(g3
tp435
Rp436
S'attaquant'
p437
F12.022243864638956
sS'goal'
p438
F0.0
sg35
F81.48714218303385
sS'fonce_Strat'
p439
F-21.60811168368758
ss(I1
I3
I3
I3
I3
I0
I0
tp440
g2
(g3
tp441
Rp442
S'attaquant'
p443
F199.9998084363076
sS'goal'
p444
F0.0
sS'evite'
p445
F48.876258676531485
sS'fonce_Strat'
p446
F99.87620599607146
ss(I3
I3
I2
I3
I3
I0
I0
tp447
g2
(g3
tp448
Rp449
g140
F364.4091990464884
sg141
F-165.19571794248435
sg35
F231.01088508001888
sg9
F-184.53782660013695
ss(I0
I1
I3
I0
I1
I0
I0
tp450
g2
(g3
tp451
Rp452
S'attaquant'
p453
F-45.84443169927241
sS'fonce_Strat'
p454
F-5.685145848559271
sS'evite'
p455
F147.34232297713424
sg9
F66.39672287760658
ss(I0
I3
I1
I1
I2
I0
I0
tp456
g2
(g3
tp457
Rp458
g140
F-194.49186365870372
sS'goal'
p459
F-0.07842788681907294
sg35
F-78.12361009254256
sg141
F-222.08281575530424
ss(I2
I1
I3
I0
I2
I0
I0
tp460
g2
(g3
tp461
Rp462
S'attaquant'
p463
F-16.35605101967011
sS'fonce_Strat'
p464
F-83.23504373227425
sS'evite'
p465
F-89.09050230381105
sS'goal'
p466
F97.6000000000063
ss(I3
I3
I0
I0
I3
I0
I0
tp467
g2
(g3
tp468
Rp469
g59
F-190.8938183594401
sS'goal'
p470
F-4.762396785137463
sg61
F2.357803446509305
sg62
F-64.44455434727757
ss(I3
I3
I3
I3
I2
I0
I0
tp471
g2
(g3
tp472
Rp473
g140
F7.999925350009408
sg141
F11.253261658294301
sg35
F9.59857083425192
sg9
F0.6674498151732955
ss(I2
I3
I0
I1
I3
I0
I0
tp474
g2
(g3
tp475
Rp476
g59
F-4.086849514645531
sS'goal'
p477
F-102.30225410719791
sg61
F-88.98671607420626
sg62
F-71.90760208403637
ss(I1
I3
I2
I1
I1
I0
I0
tp478
g2
(g3
tp479
Rp480
S'attaquant'
p481
F-118.99943518079269
sS'fonce_Strat'
p482
F-50.78180029217161
sS'evite'
p483
F37.36688500255763
sS'goal'
p484
F-10.787000716815161
ss(I0
I3
I0
I3
I2
I0
I0
tp485
g2
(g3
tp486
Rp487
S'goal'
p488
F-17.239222128574358
ss(I2
I3
I1
I2
I0
I0
I0
tp489
g2
(g3
tp490
Rp491
g140
F-158.8781778291081
sS'goal'
p492
F-239.25631157803736
sg35
F-16.45559499407957
sg141
F-568.7963813624361
ss(I1
I3
I1
I0
I0
I0
I0
tp493
g2
(g3
tp494
Rp495
S'attaquant'
p496
F-75.9625290128431
sS'fonce_Strat'
p497
F-36.27069916936907
sS'evite'
p498
F-383.2421617139174
sS'goal'
p499
F-39.31614136675714
ss(I2
I3
I3
I2
I0
I0
I0
tp500
g2
(g3
tp501
Rp502
S'attaquant'
p503
F-319.8268383346304
sS'fonce_Strat'
p504
F-128.3902106813705
sS'evite'
p505
F-0.0031851759026723368
sg9
F-297.5350962892683
ss(I0
I2
I3
I1
I0
I0
I0
tp506
g2
(g3
tp507
Rp508
S'attaquant'
p509
F4.041921586900899
sS'fonce_Strat'
p510
F35.7260535875386
sg35
F-13.591903378538024
sg9
F-48.781400074079755
ss(I1
I2
I3
I2
I3
I0
I0
tp511
g2
(g3
tp512
Rp513
S'attaquant'
p514
F120.04157960564186
sS'goal'
p515
F0.0
sS'evite'
p516
F22.487037695621208
sS'fonce_Strat'
p517
F99.9999999916563
ss(I0
I1
I3
I2
I1
I0
I0
tp518
g2
(g3
tp519
Rp520
g140
F1.9935178227054493
sg141
F5.783548459811037
sS'evite'
p521
F64.0
sg9
F8.468669413696922
ss(I0
I3
I2
I2
I1
I0
I0
tp522
g2
(g3
tp523
Rp524
g140
F-188.12038717164546
sg141
F-134.24137381103384
sg35
F-36.54779095758353
sg9
F-173.16917959497525
ss(I2
I0
I3
I0
I3
I0
I0
tp525
g2
(g3
tp526
Rp527
g140
F7.822422595355768
sg141
F5.575152841486145
sS'evite'
p528
F361.981952
sg9
F9.311978936844326
ss(I2
I3
I1
I3
I2
I0
I0
tp529
g2
(g3
tp530
Rp531
S'attaquant'
p532
F-169.2857737457744
sS'fonce_Strat'
p533
F-131.9275523565326
sS'evite'
p534
F-129.3272656657697
sg9
F-233.0778457509743
ss(I1
I1
I3
I0
I0
I0
I0
tp535
g2
(g3
tp536
Rp537
S'attaquant'
p538
F-48.799580834403095
sS'goal'
p539
F-6.05561696118037
sS'evite'
p540
F195.42706467950217
sS'fonce_Strat'
p541
F-50.984954249862824
ss(I3
I2
I3
I2
I3
I0
I0
tp542
g2
(g3
tp543
Rp544
S'fonce_Strat'
p545
F73.78659514335598
ss(I2
I1
I3
I2
I2
I0
I0
tp546
g2
(g3
tp547
Rp548
S'attaquant'
p549
F3.2132290094078364
sS'fonce_Strat'
p550
F1.6187599355036757
sS'evite'
p551
F7.705025818081683
sS'goal'
p552
F4.7905741316347275
ss(I3
I3
I0
I0
I2
I0
I0
tp553
g2
(g3
tp554
Rp555
g59
F-12.189449617282955
sS'goal'
p556
F-144.192633462656
sg61
F-83.22108890635745
sg62
F-57.29390454345154
ss(I0
I3
I3
I2
I3
I0
I0
tp557
g2
(g3
tp558
Rp559
S'attaquant'
p560
F639.8865458067091
sS'fonce_Strat'
p561
F79.09977757435952
sS'evite'
p562
F325.9880012850253
sg9
F8.898260942924018
ss(I2
I3
I0
I1
I2
I0
I0
tp563
g2
(g3
tp564
Rp565
g140
F-94.49860202974554
sS'goal'
p566
F-76.93399570398034
sS'evite'
p567
F-90.68602659963987
sS'fonce_Strat'
p568
F-97.82389828063859
ss(I1
I3
I2
I1
I2
I0
I0
tp569
g2
(g3
tp570
Rp571
S'attaquant'
p572
F-38.572595156539556
sS'fonce_Strat'
p573
F-0.17843745097512193
sS'evite'
p574
F-52.27368335067016
sg9
F-113.78098167851684
ss(I1
I3
I1
I0
I1
I0
I0
tp575
g2
(g3
tp576
Rp577
S'attaquant'
p578
F-198.8470784919756
sS'fonce_Strat'
p579
F-19.02540915128537
sS'evite'
p580
F-52.71672362893288
sS'goal'
p581
F-84.41413023705162
ss(I2
I3
I3
I2
I3
I0
I0
tp582
g2
(g3
tp583
Rp584
S'attaquant'
p585
F153.8764393206145
sS'fonce_Strat'
p586
F20.030414425405908
sS'evite'
p587
F195.24107083578986
sg9
F4.908404155531523
ss(I1
I2
I3
I2
I2
I0
I0
tp588
g2
(g3
tp589
Rp590
S'attaquant'
p591
F12.703520978310383
sS'goal'
p592
F13.1072
sS'evite'
p593
F3.317352423322933
sS'fonce_Strat'
p594
F-57.089736996548446
ss(I0
I3
I0
I2
I1
I0
I0
tp595
g2
(g3
tp596
Rp597
g140
F1.714912809438659
sS'goal'
p598
F-229.32456540294137
sg35
F-33.151241621535476
sg141
F-81.24343607936117
ss(I1
I3
I3
I3
I1
I0
I0
tp599
g2
(g3
tp600
Rp601
S'attaquant'
p602
F251.85066052494008
sS'fonce_Strat'
p603
F-113.60306325557985
sg35
F224.4786286670807
sg9
F-138.0880352149439
ss(I2
I3
I1
I3
I3
I0
I0
tp604
g2
(g3
tp605
Rp606
S'attaquant'
p607
F494.430337349148
sS'fonce_Strat'
p608
F69.8519120128905
sS'evite'
p609
F231.72418015041563
sg9
F4.525334120045743
ss(I1
I3
I1
I3
I1
I0
I0
tp610
g2
(g3
tp611
Rp612
g140
F-73.65310389117374
sg141
F-7.823590257086437
sg35
F-141.3958562680259
sg9
F-72.86793986796198
ss(I1
I1
I3
I0
I1
I0
I0
tp613
g2
(g3
tp614
Rp615
S'attaquant'
p616
F-46.22847993692976
sS'goal'
p617
F395.10954411035283
sS'evite'
p618
F-26.792965162722037
sS'fonce_Strat'
p619
F-10.24
ss(I0
I3
I1
I1
I0
I0
I0
tp620
g2
(g3
tp621
Rp622
S'attaquant'
p623
F-84.49764964585596
sS'goal'
p624
F-123.20709382835472
sS'evite'
p625
F-50.054965106000836
sg141
F-73.19422723855298
ss(I3
I2
I3
I2
I2
I0
I0
tp626
g2
(g3
tp627
Rp628
S'attaquant'
p629
F0.0
sS'fonce_Strat'
p630
F11.323072891096134
sg551
F2.248137807138758
sg552
F3.4704650596837463
ss(I3
I3
I1
I3
I3
I0
I0
tp631
g2
(g3
tp632
Rp633
S'attaquant'
p634
F231.23786883810664
sS'fonce_Strat'
p635
F-190.67219564517077
sS'evite'
p636
F390.58543055353283
sS'goal'
p637
F-197.68040918616762
ss(I2
I1
I3
I2
I1
I0
I0
tp638
g2
(g3
tp639
Rp640
g549
F1.861113441170867
sS'fonce_Strat'
p641
F0.07724181740623669
sg551
F2.0765847752893842
sg552
F3.317470086225329
ss(I1
I3
I0
I0
I2
I0
I0
tp642
g2
(g3
tp643
Rp644
S'attaquant'
p645
F50.074117734400005
sS'goal'
p646
F-130.42919757436886
sS'evite'
p647
F-87.707071174772
sg62
F-23.295171248232673
ss(I0
I3
I3
I2
I2
I0
I0
tp648
g2
(g3
tp649
Rp650
S'attaquant'
p651
F-399.85234405808615
sS'fonce_Strat'
p652
F-160.97160073141112
sS'evite'
p653
F-156.37887489905125
sg9
F-47.12405422724626
ss(I1
I3
I2
I1
I3
I0
I0
tp654
g2
(g3
tp655
Rp656
g140
F-117.04418047902712
sg141
F1.1666397101960047
sg35
F1.7960838431391761
sg9
F1.267501269943627
ss(I3
I3
I3
I2
I0
I0
I0
tp657
g2
(g3
tp658
Rp659
g140
F-42.499747094132275
sg141
F-24.625525830250744
sg35
F-97.17352093580266
sg9
F-295.1423903141807
ss(I3
I3
I0
I1
I1
I0
I0
tp660
g2
(g3
tp661
Rp662
g140
F-59.11208502327204
sS'goal'
p663
F-77.89896484279562
sg35
F-0.9641082659708522
sg141
F-113.51672805649348
ss(I2
I3
I3
I2
I2
I0
I0
tp664
g2
(g3
tp665
Rp666
g140
F-99.9980049058582
sg141
F-66.51428975095341
sg35
F-6.424049771975733e-06
sg9
F-99.2621302211256
ss(I2
I3
I0
I0
I1
I0
I0
tp667
g2
(g3
tp668
Rp669
S'attaquant'
p670
F36.862309123024446
sS'fonce_Strat'
p671
F-53.23194377349197
sS'evite'
p672
F-34.51925370195027
sS'goal'
p673
F-294.85218877105206
ss(I0
I3
I0
I2
I2
I0
I0
tp674
g2
(g3
tp675
Rp676
g140
F-58.45377870987945
sS'goal'
p677
F-108.0016535072925
sg35
F-47.38377978209401
sg141
F-4.632851372274005
ss(I2
I0
I3
I0
I1
I0
I0
tp678
g2
(g3
tp679
Rp680
S'attaquant'
p681
F47.185919999999996
sS'fonce_Strat'
p682
F330.0396971590991
sS'evite'
p683
F133.9302880410409
sg9
F0.7548764614804796
ss(I2
I3
I1
I3
I0
I0
I0
tp684
g2
(g3
tp685
Rp686
g140
F-721.5003618892728
sg141
F-624.782288556192
sg35
F-142.6942464576638
sg9
F-22.7371687623447
ss(I0
I3
I2
I1
I1
I0
I0
tp687
g2
(g3
tp688
Rp689
S'attaquant'
p690
F38.84032272311021
sS'fonce_Strat'
p691
F-163.56707839030136
sS'evite'
p692
F-34.68527360747347
sS'goal'
p693
F-133.11992385686298
ss(I2
I3
I3
I3
I0
I0
I0
tp694
g2
(g3
tp695
Rp696
S'attaquant'
p697
F0.0
sS'fonce_Strat'
p698
F-42.51616262430204
sg35
F-16.267142576359966
sg9
F-19.99720241692569
ss(I0
I3
I1
I1
I1
I0
I0
tp699
g2
(g3
tp700
Rp701
S'attaquant'
p702
F176.76428855156334
sS'fonce_Strat'
p703
F-135.66970364896278
sS'evite'
p704
F85.80228339139055
sS'goal'
p705
F-107.2834974948058
ss(I3
I2
I3
I2
I1
I0
I0
tp706
g2
(g3
tp707
Rp708
S'attaquant'
p709
F0.0
sS'fonce_Strat'
p710
F-47.39262511644672
sg61
F0.16839623947817883
sg145
F1.0852040207003246
ss(I0
I3
I2
I1
I0
I0
I0
tp711
g2
(g3
tp712
Rp713
S'attaquant'
p714
F-68.4981324073072
sS'goal'
p715
F-144.11378489053146
sS'evite'
p716
F0.07167619236713488
sg141
F-283.0175702268783
ss(I2
I1
I3
I2
I0
I0
I0
tp717
g2
(g3
tp718
Rp719
S'attaquant'
p720
F0.0
sS'fonce_Strat'
p721
F48.824933775330834
ss(I1
I3
I0
I0
I1
I0
I0
tp722
g2
(g3
tp723
Rp724
S'attaquant'
p725
F-0.0008003781166899364
sS'fonce_Strat'
p726
F-50.310202159203634
sS'evite'
p727
F-90.02702293147512
sS'goal'
p728
F-129.00522889756922
ss(I1
I3
I3
I2
I2
I0
I0
tp729
g2
(g3
tp730
Rp731
S'attaquant'
p732
F-158.0663485122432
sS'fonce_Strat'
p733
F-149.28540961225445
sS'evite'
p734
F-64.00000000009966
sg9
F-98.43854540799879
ss(I0
I3
I3
I2
I1
I0
I0
tp735
g2
(g3
tp736
Rp737
S'attaquant'
p738
F-98.82481332420383
sS'fonce_Strat'
p739
F-40.70629306261825
sS'evite'
p740
F-169.3354542461028
sg9
F-160.46932788997245
ss(I0
I3
I1
I2
I1
I0
I0
tp741
g2
(g3
tp742
Rp743
g140
F-36.86582334286274
sS'goal'
p744
F-153.00809630304292
sg35
F-112.11609812612646
sg141
F-129.0674517901575
ss(I2
I3
I2
I1
I3
I0
I0
tp745
g2
(g3
tp746
Rp747
g140
F-99.90926862091229
sg141
F-1.7849239122566096
sg35
F-83.64329569431519
sg9
F-84.19708479169702
ss(I3
I3
I0
I1
I2
I0
I0
tp748
g2
(g3
tp749
Rp750
g59
F-48.925894671144285
sS'goal'
p751
F-96.49422053396066
sg61
F-116.4061561024279
sg62
F-91.41006434044762
ss(I3
I3
I3
I1
I1
I0
I0
tp752
g2
(g3
tp753
Rp754
g140
F-178.52559102707284
sg141
F-55.07557241597577
sg35
F-97.73954594393976
sg9
F-25.415028766652295
ss(I2
I3
I2
I3
I2
I0
I0
tp755
g2
(g3
tp756
Rp757
S'attaquant'
p758
F135.4716713802376
sS'fonce_Strat'
p759
F60.229518075003156
sS'evite'
p760
F398.83069818448723
sg9
F-288.017846475381
ss(I2
I3
I0
I0
I2
I0
I0
tp761
g2
(g3
tp762
Rp763
S'attaquant'
p764
F-2.9738534523902134e-06
sS'goal'
p765
F-34.39842475402965
sS'evite'
p766
F-98.79578607941332
sS'fonce_Strat'
p767
F-163.87401711746537
ss(I2
I3
I1
I3
I1
I0
I0
tp768
g2
(g3
tp769
Rp770
g140
F-0.5399879567615835
sg141
F-290.0315839850772
sg35
F-114.84648797144914
sg9
F-194.03021872355362
ss(I2
I3
I3
I3
I1
I0
I0
tp771
g2
(g3
tp772
Rp773
S'attaquant'
p774
F-36.56195265454163
sS'fonce_Strat'
p775
F-47.50732604652836
sS'evite'
p776
F-7.324789246908561e-05
sS'goal'
p777
F-99.69776854509635
ss(I0
I2
I3
I0
I1
I0
I0
tp778
g2
(g3
tp779
Rp780
S'attaquant'
p781
F-48.2893786744477
sS'fonce_Strat'
p782
F-99.14247100806476
sS'evite'
p783
F-60.28055801454985
sg9
F-10.06962931159037
ss(I3
I3
I1
I3
I1
I0
I0
tp784
g2
(g3
tp785
Rp786
g140
F-526.9202932590704
sS'goal'
p787
F-132.45183598125095
sg35
F-17.006200514618815
sg141
F-994.1823429500904
ss(I2
I2
I3
I2
I2
I0
I0
tp788
g2
(g3
tp789
Rp790
S'attaquant'
p791
F4.435986928538796
sS'fonce_Strat'
p792
F-76.718676139363
sg35
F1.6244012756252537
sg9
F4.361342327217132
ss(I1
I3
I0
I0
I0
I0
I0
tp793
g2
(g3
tp794
Rp795
S'attaquant'
p796
F-46.649019351039996
sS'fonce_Strat'
p797
F-7.422535325346456
sS'evite'
p798
F-44.38697591242752
sS'goal'
p799
F-147.5712
ss(I1
I3
I3
I2
I3
I0
I0
tp800
g2
(g3
tp801
Rp802
S'attaquant'
p803
F436.9072709550972
sS'fonce_Strat'
p804
F159.52776335513062
sS'evite'
p805
F116.0066233093473
sg9
F1.350660365660386
ss(I2
I3
I1
I0
I1
I0
I0
tp806
g2
(g3
tp807
Rp808
S'attaquant'
p809
F-24.187017134497328
sS'goal'
p810
F-48.79999999943901
sS'evite'
p811
F-25.266982285304124
sS'fonce_Strat'
p812
F-87.1892960642376
ss(I3
I3
I2
I0
I2
I0
I0
tp813
g2
(g3
tp814
Rp815
g140
F-66.46448114608181
sg141
F-50.18164708845957
sg35
F-36.15131562230976
sg9
F-21.515771969214697
ss(I3
I3
I1
I0
I3
I0
I0
tp816
g2
(g3
tp817
Rp818
g59
F-209.6487758970255
sS'goal'
p819
F-25.886720643120384
sg61
F-73.14857464503477
sg62
F-169.9585606912512
ss(I3
I3
I1
I3
I0
I0
I0
tp820
g2
(g3
tp821
Rp822
g140
F-665.7598111650199
sg141
F-585.9387555526008
sg35
F-0.5393398848422444
sg9
F-249.00465960191497
ss(I2
I3
I2
I1
I2
I0
I0
tp823
g2
(g3
tp824
Rp825
S'attaquant'
p826
F-69.47311624521161
sS'goal'
p827
F-35.61313267447501
sS'evite'
p828
F1.3979254726249429e-37
sg141
F-30.222581760000004
ss(I1
I3
I0
I1
I2
I0
I0
tp829
g2
(g3
tp830
Rp831
g140
F-225.34835533974496
sS'goal'
p832
F-20.121153778510582
sg35
F-122.23479900391735
sg141
F-92.96722275926474
ss(I3
I3
I0
I1
I3
I0
I0
tp833
g2
(g3
tp834
Rp835
g59
F-35.00329804692082
sS'goal'
p836
F-199.9473098312748
sg61
F0.32692384489094267
sg62
F-88.6853055378085
ss(I0
I3
I3
I1
I2
I0
I0
tp837
g2
(g3
tp838
Rp839
g140
F-239.55540578996633
sg141
F-311.876287100691
sS'evite'
p840
F-4.419102253021558
sg9
F-207.76474474583657
ss(I0
I3
I3
I3
I2
I0
I0
tp841
g2
(g3
tp842
Rp843
S'attaquant'
p844
F39.02932876330004
sS'fonce_Strat'
p845
F31.61350457564789
sS'evite'
p846
F117.1117867253241
sg9
F5.084598986437991
ss(I2
I3
I0
I0
I3
I0
I0
tp847
g2
(g3
tp848
Rp849
g59
F2.0803953999324714
sS'goal'
p850
F-24.581982150547894
sg61
F1.768260054142976
sg62
F1.850647559121132
ss(I3
I3
I3
I3
I0
I0
I0
tp851
g2
(g3
tp852
Rp853
g140
F-80.0
sg141
F1.130620690995077e-07
sg35
F2.50684348002127e-11
sg9
F-195.19999994042186
ss(I1
I3
I1
I3
I2
I0
I0
tp854
g2
(g3
tp855
Rp856
g140
F-50.04003856523108
sg141
F-92.65534654558277
sg35
F-5.046658161316957
sg9
F-58.99025615924735
ss(I2
I3
I3
I3
I2
I0
I0
tp857
g2
(g3
tp858
Rp859
S'attaquant'
p860
F0.0
sS'fonce_Strat'
p861
F39.98154019385655
sg35
F7.394215919326146
sg9
F6.430834052197744
ss(I0
I3
I2
I1
I2
I0
I0
tp862
g2
(g3
tp863
Rp864
g140
F-314.7147020125057
sg141
F-179.08953869635883
sg35
F-43.17162562143364
sg9
F-246.77584079149534
ss(I3
I3
I3
I2
I1
I0
I0
tp865
g2
(g3
tp866
Rp867
g140
F-85.44493770788299
sg141
F-316.1147911762967
sg35
F-0.01455088490404304
sg9
F-203.3005716371905
ss(I2
I2
I3
I2
I3
I0
I0
tp868
g2
(g3
tp869
Rp870
S'attaquant'
p871
F20.00225480172205
sS'goal'
p872
F0.0
sS'evite'
p873
F197.08621502994004
sS'fonce_Strat'
p874
F7.672854615578396
ss(I1
I3
I3
I2
I0
I0
I0
tp875
g2
(g3
tp876
Rp877
g140
F-46.33104139060706
sg141
F-127.764019594765
sg35
F0.8312278683177089
sg9
F-86.94248821362177
ss(I3
I3
I0
I3
I2
I0
I0
tp878
g2
(g3
tp879
Rp880
g140
F-282.8468997034514
sS'goal'
p881
F-997.0816019182269
sg35
F-117.61920243736367
sg141
F-727.178427510227
ss(I1
I3
I1
I2
I0
I0
I0
tp882
g2
(g3
tp883
Rp884
g140
F23.655802305600734
sS'goal'
p885
F-195.78439727608216
sg35
F7.111184822657428
sg141
F-143.8731128852923
ss(I0
I3
I2
I0
I0
I0
I0
tp886
g2
(g3
tp887
Rp888
S'attaquant'
p889
F-141.66681302401025
sS'fonce_Strat'
p890
F-138.06848
sS'evite'
p891
F-35.058341512161086
sS'goal'
p892
F-84.80000000006376
ss(I0
I2
I3
I2
I3
I0
I0
tp893
g2
(g3
tp894
Rp895
S'attaquant'
p896
F217.28969295656356
sS'fonce_Strat'
p897
F44.233951223586466
sS'evite'
p898
F145.34504472886834
sg9
F2.754714832333322
ss(I2
I3
I2
I1
I1
I0
I0
tp899
g2
(g3
tp900
Rp901
g140
F-99.99998354495443
sS'fonce_Strat'
p902
F-231.8790511807884
sg35
F-26.91869669463697
sS'goal'
p903
F-26.866352380516503
ss(I3
I3
I0
I2
I3
I0
I0
tp904
g2
(g3
tp905
Rp906
S'goal'
p907
F-172.51997840217834
ss(I0
I3
I3
I3
I3
I0
I0
tp908
g2
(g3
tp909
Rp910
S'attaquant'
p911
F18.486848551184206
sS'fonce_Strat'
p912
F99.99999326001333
sS'evite'
p913
F199.99987740016883
sS'goal'
p914
F0.0
ss(I1
I1
I3
I2
I0
I0
I0
tp915
g2
(g3
tp916
Rp917
S'fonce_Strat'
p918
F28.192
ss(I2
I3
I2
I0
I2
I0
I0
tp919
g2
(g3
tp920
Rp921
S'attaquant'
p922
F-84.30003199165208
sS'fonce_Strat'
p923
F-26.18596304106014
sS'evite'
p924
F-56.445518888691744
sS'goal'
p925
F-102.34929397598913
ss(I1
I0
I3
I0
I1
I0
I0
tp926
g2
(g3
tp927
Rp928
S'attaquant'
p929
F0.0413161624836343
sS'fonce_Strat'
p930
F0.0005444272038258864
sS'evite'
p931
F0.2882305976436265
sg9
F0.0902971487263455
ss(I0
I3
I0
I0
I1
I0
I0
tp932
g2
(g3
tp933
Rp934
g140
F-17.83972132448215
sS'fonce_Strat'
p935
F-36.0
sS'evite'
p936
F-48.96000000000001
sS'goal'
p937
F-167.98875648
ss(I2
I2
I3
I2
I0
I0
I0
tp938
g2
(g3
tp939
Rp940
S'attaquant'
p941
F-42.964974106864595
sS'fonce_Strat'
p942
F0.23884893788987727
sg35
F148.20594946834927
sS'goal'
p943
F0.0
ss(I1
I3
I3
I2
I1
I0
I0
tp944
g2
(g3
tp945
Rp946
S'attaquant'
p947
F231.09535414251306
sS'goal'
p948
F-87.62883670367816
sS'evite'
p949
F395.37518490402465
sS'fonce_Strat'
p950
F-386.2153492425329
ss(I2
I3
I1
I0
I3
I0
I0
tp951
g2
(g3
tp952
Rp953
g59
F-70.41850464254394
sS'goal'
p954
F-125.6067072
sg61
F-20.460163536135138
sg62
F-66.6267790620115
ss(I2
I0
I3
I0
I2
I0
I0
tp955
g2
(g3
tp956
Rp957
S'attaquant'
p958
F0.01866171646572612
sS'fonce_Strat'
p959
F4.370920221969271
sS'evite'
p960
F0.39073532618229173
sg9
F1.0710607437018864
ss(I0
I3
I1
I2
I2
I0
I0
tp961
g2
(g3
tp962
Rp963
g140
F-201.280321198861
sS'goal'
p964
F-99.98936807751514
sg35
F-0.0696341283255052
sg141
F-104.15111398856293
ss(I0
I3
I2
I0
I1
I0
I0
tp965
g2
(g3
tp966
Rp967
S'attaquant'
p968
F-56.332585599171594
sS'goal'
p969
F-56.952035794476714
sS'evite'
p970
F-132.46707414218184
sS'fonce_Strat'
p971
F-170.03691914563552
ss(I2
I3
I2
I1
I0
I0
I0
tp972
g2
(g3
tp973
Rp974
g140
F-31.332592573240827
sS'fonce_Strat'
p975
F-224.36355275123907
sg35
F-0.6893996152059515
sg9
F-348.2113602880743
ss(I1
I3
I0
I1
I0
I0
I0
tp976
g2
(g3
tp977
Rp978
S'attaquant'
p979
F-178.8086717086366
sS'goal'
p980
F-392.481253398195
sS'evite'
p981
F-140.9157967542456
sS'fonce_Strat'
p982
F-31.24643057117213
ss(I3
I3
I1
I2
I2
I0
I0
tp983
g2
(g3
tp984
Rp985
g140
F-97.1868955424494
sS'goal'
p986
F-242.9535560917403
sg35
F-68.8061514454575
sg141
F-116.56520008969918
ss(I1
I3
I3
I1
I1
I0
I0
tp987
g2
(g3
tp988
Rp989
S'attaquant'
p990
F397.40483958688884
sS'fonce_Strat'
p991
F-448.7473080643247
sS'evite'
p992
F-166.75976335163963
sg9
F-86.01366510419244
ss(I1
I1
I3
I2
I1
I0
I0
tp993
g2
(g3
tp994
Rp995
S'attaquant'
p996
F0.0
sS'fonce_Strat'
p997
F25.005395631773162
ss(I3
I3
I2
I1
I2
I0
I0
tp998
g2
(g3
tp999
Rp1000
g140
F-0.017454426089217025
sS'goal'
p1001
F-89.68836667787158
sg35
F-96.34069504026243
sg141
F-57.13028804092844
ss(I1
I3
I2
I2
I2
I0
I0
tp1002
g2
(g3
tp1003
Rp1004
g140
F-0.003349380109126842
sg141
F-46.38144049360608
sg35
F-188.31795041188195
sg9
F-156.38751468452307
ss(I2
I1
I3
I0
I1
I0
I0
tp1005
g2
(g3
tp1006
Rp1007
S'attaquant'
p1008
F21.977621866555666
sS'fonce_Strat'
p1009
F-35.97707076375997
sS'evite'
p1010
F-169.81497546607994
sg9
F-34.18994195972765
ss(I3
I1
I3
I0
I2
I0
I0
tp1011
g2
(g3
tp1012
Rp1013
g140
F9.0907595461152
sS'fonce_Strat'
p1014
F0.0
sS'evite'
p1015
F196.16
sg9
F7.483093121442941
ss(I2
I2
I3
I2
I1
I0
I0
tp1016
g2
(g3
tp1017
Rp1018
S'attaquant'
p1019
F-16.984555896154184
sS'fonce_Strat'
p1020
F0.004627867607175218
sS'evite'
p1021
F0.0
sS'goal'
p1022
F0.0
ss(I2
I3
I1
I0
I2
I0
I0
tp1023
g2
(g3
tp1024
Rp1025
S'attaquant'
p1026
F-99.08100614124724
sS'fonce_Strat'
p1027
F-99.9999742889913
sS'evite'
p1028
F-65.57721599999999
sS'goal'
p1029
F-82.49848065495448
ss(I1
I3
I1
I2
I2
I0
I0
tp1030
g2
(g3
tp1031
Rp1032
g140
F-121.06768221855778
sS'goal'
p1033
F-101.2029147857784
sg35
F-6.259280824926783e-05
sg141
F-170.0331560679258
ss(I3
I3
I3
I2
I3
I0
I0
tp1034
g2
(g3
tp1035
Rp1036
g79
F3.9952284852996747
sg82
F0.44756336369019223
sg81
F3.6395059643958105
sg93
F3.511959276878706
ss(I3
I3
I1
I2
I0
I0
I0
tp1037
g2
(g3
tp1038
Rp1039
g59
F-89.3398201805431
sS'goal'
p1040
F-0.0014216589723627787
sg61
F-208.45138439444807
sg62
F-162.1598892769775
ss(I2
I2
I3
I1
I1
I0
I0
tp1041
g2
(g3
tp1042
Rp1043
S'attaquant'
p1044
F-39.21753007894826
sS'fonce_Strat'
p1045
F-13.464709628086089
sS'evite'
p1046
F-8.562490612741783e-05
sg9
F-59.039999999917484
ss(I1
I3
I0
I1
I1
I0
I0
tp1047
g2
(g3
tp1048
Rp1049
S'attaquant'
p1050
F-184.09852440523423
sS'goal'
p1051
F-125.20654559566324
sS'evite'
p1052
F-18.083242637835898
sS'fonce_Strat'
p1053
F-92.98837319566925
ss(I0
I1
I3
I1
I1
I0
I0
tp1054
g2
(g3
tp1055
Rp1056
S'attaquant'
p1057
F-9.327116438240122
sS'goal'
p1058
F46.225562670232165
sS'evite'
p1059
F389.6553770516014
sS'fonce_Strat'
p1060
F-32.974624211292664
ss(I1
I3
I3
I1
I0
I0
I0
tp1061
g2
(g3
tp1062
Rp1063
S'attaquant'
p1064
F126.85435813888
sS'fonce_Strat'
p1065
F-296.5841064191522
sS'evite'
p1066
F-31.143666842381904
sg9
F-36.76688614961716
ss(I2
I3
I1
I1
I0
I0
I0
tp1067
g2
(g3
tp1068
Rp1069
g140
F-251.82534210146713
sS'fonce_Strat'
p1070
F-281.1237869191456
sg35
F-2.761624601946595
sS'goal'
p1071
F-166.46428750978959
ss(I3
I3
I2
I1
I3
I0
I0
tp1072
g2
(g3
tp1073
Rp1074
g79
F-15.820536338228106
sg82
F-72.96708661243524
sg81
F0.8071487691589692
sg93
F0.8354105237584045
ss(I2
I3
I0
I3
I0
I0
I0
tp1075
g2
(g3
tp1076
Rp1077
g140
F-47.78807552824085
sS'goal'
p1078
F-199.90968925817438
sg35
F-252.63083787257804
sg141
F-79.50119592448954
ss(I1
I3
I2
I2
I1
I0
I0
tp1079
g2
(g3
tp1080
Rp1081
g140
F-256.0578754642214
sg141
F-271.77981957686984
sg35
F-66.83876797443736
sg9
F-27.860433596034863
ss(I2
I3
I2
I0
I3
I0
I0
tp1082
g2
(g3
tp1083
Rp1084
g140
F-49.07297861221197
sg141
F-21.603947616883424
sg35
F-82.3777623354424
sg9
F-34.39168269135631
ss(I1
I3
I0
I2
I1
I0
I0
tp1085
g2
(g3
tp1086
Rp1087
g140
F-104.8567624111384
sS'goal'
p1088
F-270.36257525157407
sg35
F-5.470788338627033
sg141
F-129.9919283516585
ss(I0
I3
I3
I0
I1
I0
I0
tp1089
g2
(g3
tp1090
Rp1091
S'attaquant'
p1092
F-160.36005231645927
sS'fonce_Strat'
p1093
F-63.40970419122435
sS'evite'
p1094
F-23.59461597452077
sg9
F-123.07411192897658
ss(I3
I3
I3
I1
I3
I0
I0
tp1095
g2
(g3
tp1096
Rp1097
g79
F2.5269556635625423
sg82
F1.1533024426553855
sg81
F6.3762121696528125
sg93
F2.458189978879319
ss(I2
I3
I2
I3
I0
I0
I0
tp1098
g2
(g3
tp1099
Rp1100
g140
F-202.09040262023052
sg141
F-150.57536403478622
sg35
F-136.43872326755184
sg9
F-92.64488013803823
ss(I0
I3
I0
I1
I2
I0
I0
tp1101
g2
(g3
tp1102
Rp1103
g140
F1.6226331144785622
sS'goal'
p1104
F-59.559179492668385
sg35
F-83.05572575600765
sg141
F-76.09391048638346
ss(I1
I3
I1
I2
I3
I0
I0
tp1105
g2
(g3
tp1106
Rp1107
S'goal'
p1108
F-122.1505681391616
ss(I0
I3
I2
I2
I2
I0
I0
tp1109
g2
(g3
tp1110
Rp1111
g140
F-164.347665477155
sg141
F-47.681562797343986
sg35
F-153.53850818352348
sg9
F-138.6837854685181
ss(I1
I3
I1
I2
I1
I0
I0
tp1112
g2
(g3
tp1113
Rp1114
g140
F-98.99829785728242
sS'goal'
p1115
F-120.5250953287297
sg35
F-67.77658719430244
sg141
F-141.54301864591017
ss(I3
I3
I1
I2
I1
I0
I0
tp1116
g2
(g3
tp1117
Rp1118
g140
F-177.11035407231265
sS'goal'
p1119
F-111.189722909527
sg35
F-190.82055079436617
sg141
F-99.90096688485798
ss(I2
I2
I3
I1
I0
I0
I0
tp1120
g2
(g3
tp1121
Rp1122
S'attaquant'
p1123
F48.22450963036498
sS'fonce_Strat'
p1124
F-65.65376512705615
sg35
F79.53239032593366
sg9
F-86.18630501639984
ss(I1
I3
I3
I1
I3
I0
I0
tp1125
g2
(g3
tp1126
Rp1127
g140
F1.5019132666472994
sS'fonce_Strat'
p1128
F0.0
sg35
F-69.93277201969178
sg9
F-31.435832010234684
ss(I2
I3
I1
I1
I1
I0
I0
tp1129
g2
(g3
tp1130
Rp1131
S'attaquant'
p1132
F-47.438052337986306
sS'fonce_Strat'
p1133
F-199.79744135068148
sg35
F-0.28823037615171176
sS'goal'
p1134
F-63.467884776029834
ss(I0
I0
I3
I1
I1
I0
I0
tp1135
g2
(g3
tp1136
Rp1137
S'attaquant'
p1138
F195.2
ss(I0
I2
I3
I0
I0
I0
I0
tp1139
g2
(g3
tp1140
Rp1141
S'attaquant'
p1142
F-46.79930046578689
sS'fonce_Strat'
p1143
F-175.84080895999864
sS'evite'
p1144
F371.6223239572804
sg9
F-94.00355599690741
ss(I3
I3
I1
I1
I1
I0
I0
tp1145
g2
(g3
tp1146
Rp1147
g140
F-99.87621676389706
sS'goal'
p1148
F-88.52207331089276
sg35
F-79.75839183034506
sg141
F-118.6692821475521
ss(I1
I3
I2
I2
I0
I0
I0
tp1149
g2
(g3
tp1150
Rp1151
g140
F-69.23062655676938
sg141
F-270.12831471864706
sg35
F-69.96199175453388
sg9
F-137.91289595090944
ss(I2
I1
I3
I0
I3
I0
I0
tp1152
g2
(g3
tp1153
Rp1154
S'attaquant'
p1155
F63.73657110642688
sS'fonce_Strat'
p1156
F0.0
sS'evite'
p1157
F80.89005499849134
sg9
F7.178801984384215
ss(I1
I3
I0
I2
I0
I0
I0
tp1158
g2
(g3
tp1159
Rp1160
g59
F-86.1504436580392
sS'goal'
p1161
F-251.34193815071313
sg61
F-104.1563266165299
sg62
F-35.75767497078567
ss(I3
I3
I1
I3
I2
I0
I0
tp1162
g2
(g3
tp1163
Rp1164
g140
F-198.83046314649624
sg141
F-336.5355549680188
sg35
F-198.8334815037767
sg9
F-211.35984712145859
ss(I0
I3
I3
I0
I0
I0
I0
tp1165
g2
(g3
tp1166
Rp1167
S'attaquant'
p1168
F-67.65104599968028
sS'fonce_Strat'
p1169
F-43.03076359630833
sS'evite'
p1170
F-199.21142421304248
sS'goal'
p1171
F-36.399355389887106
ss(I2
I3
I0
I3
I2
I0
I0
tp1172
g2
(g3
tp1173
Rp1174
g59
F-32.813216530502174
sS'goal'
p1175
F-0.005531426910566567
sg61
F-32.436059161413624
sg62
F-17.545132650950112
ss(I1
I3
I2
I3
I2
I0
I0
tp1176
g2
(g3
tp1177
Rp1178
g140
F88.74941126856038
sg141
F42.57162261911961
sg35
F65.42700612349813
sg9
F-74.439498388486
ss(I0
I3
I0
I1
I1
I0
I0
tp1179
g2
(g3
tp1180
Rp1181
S'attaquant'
p1182
F-135.41342037738085
sS'goal'
p1183
F-7.95652697720701
sS'evite'
p1184
F-95.81721504710656
sS'fonce_Strat'
p1185
F-280.4225632793054
ss(I3
I3
I1
I0
I2
I0
I0
tp1186
g2
(g3
tp1187
Rp1188
g59
F-110.8279734176879
sS'goal'
p1189
F-148.30869130117702
sg61
F-95.63834666739925
sg62
F-76.88289745343361
ss(I1
I0
I3
I1
I0
I0
I0
tp1190
g2
(g3
tp1191
Rp1192
S'attaquant'
p1193
F169.71392
sS'fonce_Strat'
p1194
F0.0
sg35
F7.198098187692642
sg9
F1.5544056044298782
ss(I2
I3
I3
I0
I3
I0
I0
tp1195
g2
(g3
tp1196
Rp1197
g59
F-18.65059784337817
sS'fonce_Strat'
p1198
F-48.8
sg61
F-78.29133842510353
sg145
F-0.2001282514056558
ss(I2
I2
I3
I1
I3
I0
I0
tp1199
g2
(g3
tp1200
Rp1201
S'attaquant'
p1202
F-183.40107448561602
sS'goal'
p1203
F235.03625707287142
sS'evite'
p1204
F-99.99941539283645
sS'fonce_Strat'
p1205
F-143.5438211825069
ss(I1
I2
I3
I0
I2
I0
I0
tp1206
g2
(g3
tp1207
Rp1208
S'attaquant'
p1209
F80.01926514462387
sS'fonce_Strat'
p1210
F-102.67455578995336
sS'evite'
p1211
F-44.32776166314773
sg9
F-99.91024758517673
ss(I1
I3
I3
I1
I2
I0
I0
tp1212
g2
(g3
tp1213
Rp1214
S'attaquant'
p1215
F316.8379478239899
sS'fonce_Strat'
p1216
F-163.8399999930008
sS'evite'
p1217
F-75.601953488896
sg9
F-207.96478735934676
ss(I2
I3
I1
I1
I2
I0
I0
tp1218
g2
(g3
tp1219
Rp1220
S'attaquant'
p1221
F-26.672989071473893
sS'goal'
p1222
F-98.19856014858212
sS'evite'
p1223
F-99.97403851570732
sS'fonce_Strat'
p1224
F-88.99155229810361
ss(I3
I3
I2
I1
I1
I0
I0
tp1225
g2
(g3
tp1226
Rp1227
g140
F-232.05203693531956
sg141
F-135.06473825555068
sg35
F-123.0336326035586
sg9
F-127.75965405761185
ss(I0
I2
I3
I2
I2
I0
I0
tp1228
g2
(g3
tp1229
Rp1230
S'attaquant'
p1231
F21.34563629648601
sS'goal'
p1232
F159.69685510714163
sS'evite'
p1233
F499.9998970984104
sS'fonce_Strat'
p1234
F244.9381659146838
ss(I2
I3
I2
I0
I1
I0
I0
tp1235
g2
(g3
tp1236
Rp1237
S'attaquant'
p1238
F-38.177900968383724
sS'fonce_Strat'
p1239
F-71.99999999999514
sS'evite'
p1240
F-47.24998903317426
sS'goal'
p1241
F-109.26966774204577
ss(I1
I3
I0
I2
I3
I0
I0
tp1242
g2
(g3
tp1243
Rp1244
S'goal'
p1245
F0.0
ss(I1
I3
I3
I0
I0
I0
I0
tp1246
g2
(g3
tp1247
Rp1248
S'attaquant'
p1249
F-55.99814407397338
sS'goal'
p1250
F-242.24431788037992
sS'evite'
p1251
F-27.599532567906635
sS'fonce_Strat'
p1252
F-25.742163351926308
ss(I0
I2
I3
I2
I1
I0
I0
tp1253
g2
(g3
tp1254
Rp1255
S'attaquant'
p1256
F91.1343845762953
sS'fonce_Strat'
p1257
F132.26554895849463
sS'evite'
p1258
F125.71291554546922
sg9
F146.4310655870767
ss(I3
I3
I0
I2
I1
I0
I0
tp1259
g2
(g3
tp1260
Rp1261
g140
F-170.65421091501767
sS'goal'
p1262
F-212.76415250456807
sg35
F-50.646568730776735
sg141
F-86.57822728729153
ss(I3
I3
I2
I2
I1
I0
I0
tp1263
g2
(g3
tp1264
Rp1265
g140
F-399.9999895751333
sg141
F-285.08648624650885
sg35
F-14.857428473538107
sg9
F-201.1964054292257
ss(I1
I2
I3
I0
I0
I0
I0
tp1266
g2
(g3
tp1267
Rp1268
S'attaquant'
p1269
F-19.935640479773788
sS'fonce_Strat'
p1270
F-36.77027791977458
sS'evite'
p1271
F-97.59999449498874
sg9
F-73.18333991801609
ss(I2
I3
I0
I3
I1
I0
I0
tp1272
g2
(g3
tp1273
Rp1274
g59
F-120.22447777734041
sS'goal'
p1275
F-73.54101694509623
sg61
F-78.35227227650833
sg62
F-32.080383521438726
ss(I1
I3
I2
I3
I3
I0
I0
tp1276
g2
(g3
tp1277
Rp1278
S'attaquant'
p1279
F188.79035344340005
sS'fonce_Strat'
p1280
F69.8519120128905
sS'evite'
p1281
F135.7009252030542
sg9
F1.5348421967127084
ss(I2
I1
I3
I1
I0
I0
I0
tp1282
g2
(g3
tp1283
Rp1284
S'attaquant'
p1285
F55.41885891744297
sS'fonce_Strat'
p1286
F126.37287961788392
sg35
F244.37516141358964
sg9
F1.0220905830582936
ss(I0
I3
I0
I1
I0
I0
I0
tp1287
g2
(g3
tp1288
Rp1289
g140
F-13.021707290652964
sS'goal'
p1290
F-261.7895509023228
sg35
F-77.2854142308124
sg141
F-111.75225897010695
ss(I1
I0
I3
I1
I1
I0
I0
tp1291
g2
(g3
tp1292
Rp1293
S'attaquant'
p1294
F98.88696237369315
sS'fonce_Strat'
p1295
F0.0
sS'evite'
p1296
F102.5411797998581
sg9
F5.555273773067591
ss(I3
I0
I3
I0
I3
I0
I0
tp1297
g2
(g3
tp1298
Rp1299
S'fonce_Strat'
p1300
F134.464
ss(I3
I1
I3
I1
I3
I0
I0
tp1301
g2
(g3
tp1302
Rp1303
S'attaquant'
p1304
F124.09578811084278
sS'fonce_Strat'
p1305
F5.240731184646122
sS'evite'
p1306
F99.597346816
sg9
F6.33765057964524
ss(I2
I3
I3
I0
I2
I0
I0
tp1307
g2
(g3
tp1308
Rp1309
S'attaquant'
p1310
F-199.99990191194166
sS'fonce_Strat'
p1311
F-28.443925669673
sS'evite'
p1312
F198.15176589909734
sS'goal'
p1313
F-93.33561653966751
ss(I2
I2
I3
I1
I2
I0
I0
tp1314
g2
(g3
tp1315
Rp1316
S'attaquant'
p1317
F364.7812688895696
sS'fonce_Strat'
p1318
F-79.47940107359945
sS'evite'
p1319
F92.10468497685534
sg9
F-63.9999598265489
ss(I1
I2
I3
I0
I1
I0
I0
tp1320
g2
(g3
tp1321
Rp1322
S'attaquant'
p1323
F314.6795737665799
sS'fonce_Strat'
p1324
F-58.92946390147101
sS'evite'
p1325
F-118.05696
sg9
F-32.35080447138402
ss(I2
I3
I1
I1
I3
I0
I0
tp1326
g2
(g3
tp1327
Rp1328
g140
F-95.60253716587324
sS'goal'
p1329
F-141.10300425521777
sg35
F102.0905079173121
sg141
F-120.46877283530735
ss(I3
I3
I2
I0
I3
I0
I0
tp1330
g2
(g3
tp1331
Rp1332
g59
F-97.748197177328
sg62
F-95.60264981174397
sg61
F-37.945425376676965
sg145
F-79.27800554742814
ss(I3
I2
I3
I0
I2
I0
I0
tp1333
g2
(g3
tp1334
Rp1335
g59
F2.241862365872644
sg62
F2.2527965682515534
sg61
F3.5251408889890548
sg145
F1.4198533984418438
ss(I3
I3
I1
I1
I3
I0
I0
tp1336
g2
(g3
tp1337
Rp1338
g59
F-79.03246246091737
sg62
F-97.46293830306134
sg61
F-115.4932825508821
sg145
F-114.61041916170515
ss(I3
I3
I3
I3
I3
I0
I0
tp1339
g2
(g3
tp1340
Rp1341
g140
F3.157034215654508
sg141
F286.1930016677785
sg35
F7.033671698354699
sg9
F3.76295107617179e-87
ss(I1
I3
I0
I2
I2
I0
I0
tp1342
g2
(g3
tp1343
Rp1344
g59
F-95.74873691280015
sS'goal'
p1345
F-70.4857797562166
sg61
F-78.64067407525279
sg62
F-108.69371948276873
ss(I1
I3
I3
I0
I1
I0
I0
tp1346
g2
(g3
tp1347
Rp1348
S'attaquant'
p1349
F-159.99999999781204
sS'fonce_Strat'
p1350
F76.6284800000002
sS'evite'
p1351
F-8.94180547663873
sS'goal'
p1352
F65.6507368145888
ss(I3
I3
I0
I2
I0
I0
I0
tp1353
g2
(g3
tp1354
Rp1355
g59
F-15.339801076544958
sS'goal'
p1356
F-60.750086576590476
sg61
F-207.12888992247838
sg62
F-138.34704189312623
ss(I3
I3
I2
I2
I0
I0
I0
tp1357
g2
(g3
tp1358
Rp1359
g140
F-72.00937983415048
sg141
F-56.859874710480575
sg35
F-17.62396087172054
sg9
F-235.99522021601996
ss(I1
I0
I3
I0
I2
I0
I0
tp1360
g2
(g3
tp1361
Rp1362
S'attaquant'
p1363
F36.0448
sS'fonce_Strat'
p1364
F12.381585408000001
sS'evite'
p1365
F133.2368014447652
sg9
F111.75863345681357
ss(I2
I1
I3
I1
I1
I0
I0
tp1366
g2
(g3
tp1367
Rp1368
S'attaquant'
p1369
F0.21473052605141993
sS'fonce_Strat'
p1370
F-26.961650669911204
sS'evite'
p1371
F-30.83701921188405
sg9
F-35.014248975559106
ss(I1
I0
I3
I1
I2
I0
I0
tp1372
g2
(g3
tp1373
Rp1374
S'attaquant'
p1375
F150.848
ss(I3
I0
I3
I0
I2
I0
I0
tp1376
g2
(g3
tp1377
Rp1378
S'fonce_Strat'
p1379
F96.178065408
ss(I0
I3
I3
I1
I0
I0
I0
tp1380
g2
(g3
tp1381
Rp1382
S'attaquant'
p1383
F-96.03200292091127
sS'goal'
p1384
F-73.59361998614327
sS'evite'
p1385
F-85.19566425002404
sS'fonce_Strat'
p1386
F-126.01996709580465
ss(I3
I1
I3
I1
I2
I0
I0
tp1387
g2
(g3
tp1388
Rp1389
S'attaquant'
p1390
F17.55191970360603
sS'fonce_Strat'
p1391
F64.75077465245492
sS'evite'
p1392
F152.1163217869996
sg9
F2.6829651294471244
ss(I2
I3
I3
I0
I1
I0
I0
tp1393
g2
(g3
tp1394
Rp1395
S'attaquant'
p1396
F-41.1932133203109
sS'goal'
p1397
F-158.09860744742952
sS'evite'
p1398
F-191.687692094278
sS'fonce_Strat'
p1399
F-137.53088274845635
ss(I1
I3
I0
I1
I3
I0
I0
tp1400
g2
(g3
tp1401
Rp1402
S'goal'
p1403
F-72.0
ss(I2
I3
I0
I2
I2
I0
I0
tp1404
g2
(g3
tp1405
Rp1406
g59
F-17.85116100473947
sS'goal'
p1407
F-1.4435416937222494
sg61
F-72.20569418876133
sg62
F0.28832283284342786
ss(I3
I3
I0
I2
I2
I0
I0
tp1408
g2
(g3
tp1409
Rp1410
g59
F-97.43206140836642
sS'goal'
p1411
F-79.02848821332863
sg61
F-161.9613607968056
sg62
F-163.33256842273448
ss(I3
I3
I3
I0
I2
I0
I0
tp1412
g2
(g3
tp1413
Rp1414
g140
F-148.958454074135
sg141
F2.952200807880564
sg35
F-37.866705258678586
sg9
F5.155323131379112
ss(I1
I3
I1
I1
I3
I0
I0
tp1415
g2
(g3
tp1416
Rp1417
g140
F1.6983592648235466
sS'goal'
p1418
F-107.84
sg35
F-45.19783999769233
sg141
F2.3416817061513155
ss(I3
I3
I1
I1
I2
I0
I0
tp1419
g2
(g3
tp1420
Rp1421
g140
F-63.99994981074283
sS'goal'
p1422
F-198.1579953394658
sg35
F-88.39556930010538
sg141
F-72.00000018341997
ss.