(dp0
(I2
I3
I1
I3
I0
tp1
ccollections
defaultdict
p2
(c__builtin__
float
p3
tp4
Rp5
S'attaquant'
p6
F-72.36288774971925
sS'fonce_Strat'
p7
F-2.0641815311039964
sS'evite'
p8
F-122.39615099730258
sS'goal'
p9
F-226.0787149709587
ss(I1
I2
I3
I0
I0
tp10
g2
(g3
tp11
Rp12
g6
F-12.468124415464063
sg7
F-315.89492692970583
sg8
F-99.40970418947124
sg9
F1.5776154192881826e-15
ss(I0
I2
I3
I0
I0
tp13
g2
(g3
tp14
Rp15
g6
F-399.9169232502537
sg7
F-8.411288437425318
sg8
F9.276939487231738e-18
sg9
F-2.084864
ss(I2
I3
I3
I1
I0
tp16
g2
(g3
tp17
Rp18
g6
F-199.3297075329433
sg7
F-199.99991965306475
sg8
F-73.00129068730153
sg9
F0.0028575752154056783
ss(I3
I2
I3
I1
I0
tp19
g2
(g3
tp20
Rp21
g6
F116.72359999713908
sg7
F96.87500445870683
sg8
F76.27461516290808
sg9
F127.50099170184787
ss(I2
I1
I3
I0
I0
tp22
g2
(g3
tp23
Rp24
g6
F-22.227445328287878
sg7
F-91.40987793555739
sg8
F-10.237395537227142
sg9
F-51.485068085514015
ss(I1
I3
I0
I2
I0
tp25
g2
(g3
tp26
Rp27
g6
F-224.99768689724513
sg7
F-194.38968363777556
sg8
F-143.07479568915363
sg9
F-128.46285525661753
ss(I0
I3
I2
I0
I0
tp28
g2
(g3
tp29
Rp30
g6
F-99.99999996205725
sg7
F-0.028211432973650946
sg8
F-99.96754814475162
sg9
F-88.41160369216114
ss(I3
I1
I3
I1
I0
tp31
g2
(g3
tp32
Rp33
g6
F100.95250201077177
sg7
F1.471781869814508
sg8
F0.5609397384475763
sg9
F93.452564997736
ss(I2
I2
I3
I2
I0
tp34
g2
(g3
tp35
Rp36
g6
F-86.5782272
sg7
F-99.99993434256876
sg8
F-19.006041487917123
sg9
F99.99455548212926
ss(I1
I3
I3
I3
I0
tp37
g2
(g3
tp38
Rp39
g6
F-1.8924125634159927
sg7
F99.99999999998968
sg8
F-79.79314923230729
sg9
F-20.0
ss(I2
I3
I2
I0
I0
tp40
g2
(g3
tp41
Rp42
g6
F-198.30302350133817
sg7
F-1.6979583779491629e-18
sg8
F-99.92123656475435
sg9
F-199.97403845339414
ss(I0
I1
I3
I1
I0
tp43
g2
(g3
tp44
Rp45
g6
F4.922828189357714
sg7
F8.079400186963298
sg8
F2.2826706201397866
sg9
F-99.99091555915035
ss(I3
I3
I3
I2
I0
tp46
g2
(g3
tp47
Rp48
g6
F-19.99984676333959
sg7
F-99.9878134274829
sg8
F0.008507050862547473
sg9
F7.5357918699350135
ss(I1
I1
I3
I0
I0
tp49
g2
(g3
tp50
Rp51
g6
F-15.687913115859269
sg7
F0.013742287021730026
sg8
F-66.35707036047721
sg9
F-42.09496287369795
ss(I0
I3
I1
I2
I0
tp52
g2
(g3
tp53
Rp54
g6
F-151.2
sg7
F-376.9396679795132
sg8
F-157.73048023603266
sg9
F-99.99998789273991
ss(I3
I3
I2
I1
I0
tp55
g2
(g3
tp56
Rp57
g6
F-149.6093750814896
sg7
F-2.3998437308915754
sg8
F-59.50496720164765
sg9
F-196.32000505866034
ss(I0
I3
I2
I3
I0
tp58
g2
(g3
tp59
Rp60
g6
F-199.95117185171694
sg7
F-95.60195347660799
sg8
F-57.44637187492159
sg9
F94.50221127681908
ss(I2
I3
I1
I0
I0
tp61
g2
(g3
tp62
Rp63
g6
F-2.6738927117361088e-12
sg7
F-204.76597607696945
sg8
F-112.0301296687657
sg9
F-115.196489904835
ss(I1
I2
I3
I1
I0
tp64
g2
(g3
tp65
Rp66
g6
F1.0838022340098283e-09
sg7
F-97.54211521709173
sg8
F-99.99980843805739
sg9
F-73.73112706306544
ss(I0
I3
I0
I1
I0
tp67
g2
(g3
tp68
Rp69
g6
F-146.4473599999981
sg7
F-164.90965813509908
sg8
F-234.97352455255387
sg9
F-399.949550256133
ss(I2
I3
I0
I3
I0
tp70
g2
(g3
tp71
Rp72
g6
F-314.0251774529089
sg7
F-96.02048844099045
sg8
F-407.5206246374195
sg9
F-151.4579793890851
ss(I2
I1
I3
I1
I0
tp73
g2
(g3
tp74
Rp75
g6
F0.00036140522136918234
sg7
F2.565145449446297e-08
sg8
F-93.10802263722243
sg9
F-79.99940540583182
ss(I1
I0
I3
I0
I0
tp76
g2
(g3
tp77
Rp78
g6
F23.708222259180648
sg7
F0.29268413803690374
sg8
F59.265436994226974
sg9
F15.352164055579104
ss(I1
I3
I2
I1
I0
tp79
g2
(g3
tp80
Rp81
g6
F-159.51833329987727
sg7
F-249.09179542093983
sg8
F-132.95166881964127
sg9
F-99.99992153088846
ss(I1
I3
I2
I0
I0
tp82
g2
(g3
tp83
Rp84
g6
F-4.7001342621202113e-14
sg7
F-99.99999987858321
sg8
F-83.88541709140756
sg9
F-197.92776317887535
ss(I3
I1
I3
I0
I0
tp85
g2
(g3
tp86
Rp87
g6
F76.75659551896076
sg7
F1.504468823282498
sg8
F184.9726357385676
sg9
F102.71219439362463
ss(I2
I2
I3
I1
I0
tp88
g2
(g3
tp89
Rp90
g6
F-122.43179975855908
sg7
F-105.39176041677527
sg8
F-99.99999962946393
sg9
F0.28277229046230046
ss(I1
I3
I3
I2
I0
tp91
g2
(g3
tp92
Rp93
g6
F-90.22888272127622
sg7
F-0.0884515958903626
sg8
F-170.25288288549177
sg9
F-75.8172106052766
ss(I3
I2
I3
I2
I0
tp94
g2
(g3
tp95
Rp96
g6
F1.2500168500036508
sg7
F16.83021896633192
sg8
F9.720475423074259
sg9
F0.019977412077873916
ss(I0
I1
I3
I2
I0
tp97
g2
(g3
tp98
Rp99
g6
F25.245141042759975
sg7
F75.2297718324073
sg8
F112.79781245721043
sg9
F4.578122431544667
ss(I0
I3
I1
I3
I0
tp100
g2
(g3
tp101
Rp102
g6
F1.365894337033644e-10
sg7
F-0.09763240810180165
sg8
F-73.38619508735222
sg9
F1.7006295782006332e-12
ss(I0
I3
I3
I1
I0
tp103
g2
(g3
tp104
Rp105
g6
F-74.74370148885575
sg7
F-1.9961331632336148
sg8
F-179.61273255086343
sg9
F-187.9691279107144
ss(I3
I3
I2
I2
I0
tp106
g2
(g3
tp107
Rp108
g6
F-100.00305175771346
sg7
F38.847078527942415
sg8
F-35.999975585937506
sg9
F-63.624960004562666
ss(I3
I3
I3
I3
I0
tp109
g2
(g3
tp110
Rp111
g6
F20.0
sg7
F1.2071689679103253e-86
sg8
F-0.04272132538018779
sg9
F2.1704618778842752e-89
ss(I1
I3
I0
I3
I0
tp112
g2
(g3
tp113
Rp114
S'attaquant'
p115
F-269.81084513792007
sS'fonce_Strat'
p116
F-250.81021328400934
sS'evite'
p117
F-105.94703468104339
sS'goal'
p118
F-149.65583431446436
ss(I1
I3
I2
I2
I0
tp119
g2
(g3
tp120
Rp121
g6
F-56.670582639752446
sg7
F-53.97226049526618
sg8
F-235.01911517988384
sg9
F-132.81354016445988
ss(I0
I3
I2
I2
I0
tp122
g2
(g3
tp123
Rp124
g6
F-89.40510608756809
sg7
F-99.9998205004793
sg8
F-122.68567307659374
sg9
F-308.0000000244472
ss(I3
I3
I1
I3
I0
tp125
g2
(g3
tp126
Rp127
g6
F-0.012514082792589332
sg7
F-94.68454489860495
sg8
F-194.20014927552543
sg9
F-399.94913839646114
ss(I1
I3
I1
I3
I0
tp128
g2
(g3
tp129
Rp130
g6
F-149.99999990686774
sg7
F-140.70470320128
sg8
F-102.3936
sg9
F-318.12513481835845
ss(I2
I3
I0
I1
I0
tp131
g2
(g3
tp132
Rp133
g6
F-98.2800408098879
sg7
F-157.8951179348589
sg8
F-39.36129843820284
sg9
F-199.94505644062883
ss(I2
I3
I1
I1
I0
tp134
g2
(g3
tp135
Rp136
g6
F-103.77940843862538
sg7
F-0.07663417439738801
sg8
F-146.2473728
sg9
F-199.9997605473473
ss(I1
I2
I3
I2
I0
tp137
g2
(g3
tp138
Rp139
g6
F-79.99995679865548
sg7
F4.148224000867583
sg8
F-85.66399998602812
sg9
F89.26289275869318
ss(I0
I2
I3
I2
I0
tp140
g2
(g3
tp141
Rp142
g6
F-12.7999999999974
sg7
F-37.77553957814641
sg8
F-99.99995959901099
sg9
F99.9994153993487
ss(I2
I3
I0
I2
I0
tp143
g2
(g3
tp144
Rp145
g6
F-363.6702098499964
sg7
F-51.16932876656856
sg8
F-352.8670524160546
sg9
F-199.99992153619627
ss(I0
I3
I0
I0
I0
tp146
g2
(g3
tp147
Rp148
g6
F-95.60614711520779
sg7
F-126.74996948242188
sg8
F-115.19961242657155
sg9
F-2.6315637529515072
ss(I3
I0
I3
I0
I0
tp149
g2
(g3
tp150
Rp151
S'attaquant'
p152
F2.32217423698917
sS'fonce_Strat'
p153
F173.61591657331925
sS'evite'
p154
F1.049191832076172
sS'goal'
p155
F2.079149486028539
ss(I1
I0
I3
I1
I0
tp156
g2
(g3
tp157
Rp158
S'attaquant'
p159
F6.225722978817374
sS'fonce_Strat'
p160
F5.429295228419688
sS'evite'
p161
F0.13471537608326356
sS'goal'
p162
F12.672777193127274
ss(I2
I2
I3
I0
I0
tp163
g2
(g3
tp164
Rp165
g6
F-327.6830873499268
sg7
F-99.99885373364623
sg8
F-1.4051362035713248e-06
sg9
F-307.08488372211946
ss(I1
I3
I3
I1
I0
tp166
g2
(g3
tp167
Rp168
g6
F-0.01487173016504945
sg7
F-75.80992956052728
sg8
F-199.99999999941286
sg9
F-168.9424764512798
ss(I3
I2
I3
I3
I0
tp169
g2
(g3
tp170
Rp171
g159
F7.36934011900661
sg160
F0.13167049510667259
sg161
F0.015774783297418476
sg162
F4.835292221483449
ss(I2
I1
I3
I2
I0
tp172
g2
(g3
tp173
Rp174
g6
F373.1633201908054
sg7
F137.41232818343894
sg8
F125.00011939546454
sg9
F75.3603392
ss(I1
I3
I0
I0
I0
tp175
g2
(g3
tp176
Rp177
g6
F-85.1362822899017
sg7
F-0.12048916806256309
sg8
F-147.3588532952142
sg9
F-79.99387794549922
ss(I2
I3
I2
I1
I0
tp178
g2
(g3
tp179
Rp180
g6
F-5.478163741846549
sg7
F-196.39705757681855
sg8
F-179.98314521665307
sg9
F-108.85119843749995
ss(I2
I3
I3
I2
I0
tp181
g2
(g3
tp182
Rp183
g6
F-99.79768445413318
sg7
F-13.258778791096484
sg8
F-2.399999999999981
sg9
F61.74820018631475
ss(I1
I1
I3
I2
I0
tp184
g2
(g3
tp185
Rp186
g6
F304.80000148652005
sg7
F45.24294644128775
sg8
F57.96395982615792
sg9
F130.000005588349
ss(I0
I3
I3
I0
I0
tp187
g2
(g3
tp188
Rp189
g6
F-3.5621628795041156e-88
sg7
F-99.99999999999997
sg8
F-139.26399999999995
sg9
F-167.2065020141911
ss(I3
I3
I0
I1
I0
tp190
g2
(g3
tp191
Rp192
g6
F-30.7195548591693
sg7
F-337.4969319440159
sg8
F-143.7045986440436
sg9
F-135.99999997019768
ss(I0
I3
I2
I1
I0
tp193
g2
(g3
tp194
Rp195
g6
F-125.43087353808983
sg7
F-102.57253154268692
sg8
F-159.49841864179015
sg9
F-203.35640346006772
ss(I3
I3
I1
I2
I0
tp196
g2
(g3
tp197
Rp198
g6
F-299.9999999999999
sg7
F-56.24023400152112
sg8
F-99.99804687546566
sg9
F-199.91853123181204
ss(I2
I0
I3
I1
I0
tp199
g2
(g3
tp200
Rp201
g6
F0.11760290210074813
sg7
F76.08306839411703
sg8
F66.86342090061186
sg9
F24.982075587608687
ss(I0
I0
I3
I0
I0
tp202
g2
(g3
tp203
Rp204
g6
F12.15866387575266
sg7
F7.335903405406893e-07
sg8
F115.50721911873492
sg9
F-19.05891443806762
ss(I0
I3
I1
I0
I0
tp205
g2
(g3
tp206
Rp207
g6
F-1.2742644809141823e-06
sg7
F-108.50690816096517
sg8
F-252.67958678259248
sg9
F-99.33913311103785
ss(I2
I3
I3
I0
I0
tp208
g2
(g3
tp209
Rp210
g6
F-99.97403851570732
sg7
F-99.99999942105039
sg8
F-3.004519002247526e-53
sg9
F-166.70298588146903
ss(I0
I3
I3
I2
I0
tp211
g2
(g3
tp212
Rp213
g6
F-99.99975513875863
sg7
F-67.23199990634924
sg8
F98.19929294601708
sg9
F-2.682332286148885
ss(I1
I3
I1
I2
I0
tp214
g2
(g3
tp215
Rp216
g6
F-172.41685215139694
sg7
F-136.48081822901062
sg8
F-328.16720943508466
sg9
F-420.0644052121735
ss(I2
I3
I2
I3
I0
tp217
g2
(g3
tp218
Rp219
g6
F-0.004195624758002134
sg7
F-179.83984374761567
sg8
F-96.53928482167214
sg9
F-99.41987543357426
ss(I2
I3
I1
I2
I0
tp220
g2
(g3
tp221
Rp222
g6
F-89.63608724835353
sg7
F-0.23005501630138073
sg8
F-88.64593551048922
sg9
F-199.99980843787165
ss(I0
I3
I1
I1
I0
tp223
g2
(g3
tp224
Rp225
g6
F-177.17633156403184
sg7
F-203.9485632251818
sg8
F-395.47709558777433
sg9
F-426.38901556902215
ss(I0
I2
I3
I1
I0
tp226
g2
(g3
tp227
Rp228
g6
F6.549907145649949
sg7
F-66.4789999386755
sg8
F-101.78353477186633
sg9
F-101.37261970893309
ss(I1
I3
I3
I0
I0
tp229
g2
(g3
tp230
Rp231
g6
F-99.99999999999577
sg7
F-3.2369807560202813e-115
sg8
F-118.36853090631675
sg9
F-140.92660906492932
ss(I1
I3
I0
I1
I0
tp232
g2
(g3
tp233
Rp234
g6
F-236.5929199682665
sg7
F-5.749897135904657
sg8
F-154.7992694174266
sg9
F-246.20922801841516
ss(I2
I2
I3
I3
I0
tp235
g2
(g3
tp236
Rp237
g115
F0.188911616289906
sg116
F16.446439793862844
sg117
F30.094516704030877
sg118
F0.19005036592620506
ss(I3
I3
I2
I3
I0
tp238
g2
(g3
tp239
Rp240
g6
F-140.210065408
sg7
F-83.222784
sg8
F-1.5319752181879916e-220
sg9
F-99.99908656147667
ss(I1
I3
I2
I3
I0
tp241
g2
(g3
tp242
Rp243
g6
F-61.59967930630275
sg7
F-72.13529685347216
sg8
F-1.8932797808087447
sg9
F-143.76347743289347
ss(I0
I1
I3
I0
I0
tp244
g2
(g3
tp245
Rp246
g6
F-93.08521441745867
sg7
F-1.8721594609841734
sg8
F3.066737310420575e-13
sg9
F2.004863669848209
ss(I0
I3
I0
I2
I0
tp247
g2
(g3
tp248
Rp249
g115
F6.615600526137339
sg116
F-34.429541283987376
sg117
F-104.17806116788263
sg118
F6.910704999486205
ss(I3
I3
I1
I1
I0
tp250
g2
(g3
tp251
Rp252
g6
F-199.95508743541936
sg7
F-123.71196875
sg8
F-197.1061069860575
sg9
F-114.9118974709961
ss(I2
I0
I3
I0
I0
tp253
g2
(g3
tp254
Rp255
g6
F23.219887644066223
sg7
F20.204801428222655
sg8
F-55.72134975543612
sg9
F-14.951993341845576
ss(I1
I1
I3
I1
I0
tp256
g2
(g3
tp257
Rp258
g6
F7.30444958560071
sg7
F0.0005164747539532931
sg8
F-19.720089571804028
sg9
F-99.99996940432558
ss(I2
I3
I3
I3
I0
tp259
g2
(g3
tp260
Rp261
g6
F-99.99992210994813
sg7
F99.99953231947606
sg8
F-61.72435456
sg9
F1.1039085627550239e-49
ss(I0
I3
I3
I3
I0
tp262
g2
(g3
tp263
Rp264
g6
F99.99999999999997
sg7
F10.830678157786974
sg8
F-9.023726288895999
sg9
F-75.37911795118491
ss(I3
I3
I0
I2
I0
tp265
g2
(g3
tp266
Rp267
g6
F-235.90988966562546
sg7
F-399.60018370950877
sg8
F-135.9983616249253
sg9
F-176.39702357778896
ss(I1
I3
I1
I0
I0
tp268
g2
(g3
tp269
Rp270
g6
F-99.98782007731161
sg7
F-339.92696740236374
sg8
F-1.5976870003119586e-14
sg9
F-104.58269455161962
ss(I2
I3
I0
I0
I0
tp271
g2
(g3
tp272
Rp273
g6
F-0.12342067111858608
sg7
F-134.46400001039498
sg8
F-122.87874992370605
sg9
F-119.99203691258063
ss(I0
I3
I0
I3
I0
tp274
g2
(g3
tp275
Rp276
g152
F4.564547876170845
sg153
F0.4945185960425089
sg154
F7.81562520928052
sg155
F1.9030664959585089
ss(I3
I3
I3
I0
I0
tp277
g2
(g3
tp278
Rp279
S'attaquant'
p280
F5.7167631406880925
sS'fonce_Strat'
p281
F20.986152317630175
sS'evite'
p282
F7.767004442445382
sS'goal'
p283
F7.38895520685343
ss(I3
I3
I0
I3
I0
tp284
g2
(g3
tp285
Rp286
g6
F-142.57283840596594
sg7
F-399.8752646379806
sg8
F-429.641899529143
sg9
F-282.47435541301627
ss(I1
I3
I1
I1
I0
tp287
g2
(g3
tp288
Rp289
g6
F-399.37206214308367
sg7
F-108.69593475885698
sg8
F-174.6665807293251
sg9
F-280.1258722906067
ss(I2
I3
I2
I2
I0
tp290
g2
(g3
tp291
Rp292
g6
F-92.2106977943424
sg7
F-142.35382288294744
sg8
F-97.792052015177
sg9
F-199.3642685947267
ss(I3
I3
I3
I1
I0
tp293
g2
(g3
tp294
Rp295
g6
F-22.820000076293944
sg7
F99.99993722898265
sg8
F-99.99429446033722
sg9
F-91.286470973585
ss.