(dp0
(I2
I2
I3
I0
I1
I0
I0
tp1
ccollections
defaultdict
p2
(c__builtin__
float
p3
tp4
Rp5
S'intercepte'
p6
F64.18689456074715
sS'attaquant'
p7
F-72.29623262378436
sS'fonce_Strat'
p8
F-136.66244955272117
sS'evite'
p9
F-62.4698754284067
sS'goal'
p10
F-5.096110527998391e-08
ss(I1
I2
I3
I1
I2
I0
I0
tp11
g2
(g3
tp12
Rp13
S'intercepte'
p14
F72.0
sS'attaquant'
p15
F-153.8102273008072
sS'fonce_Strat'
p16
F-199.99984533696826
sS'evite'
p17
F7.374803945192949e-18
sS'goal'
p18
F-79.39045481658225
ss(I1
I3
I3
I0
I2
I0
I0
tp19
g2
(g3
tp20
Rp21
S'attaquant'
p22
F-9.999001263394838e-15
sS'fonce_Strat'
p23
F-109.11269739604066
sS'evite'
p24
F-99.99999999881689
sg10
F-115.83259402055862
ss(I0
I0
I3
I0
I0
I0
I0
tp25
g2
(g3
tp26
Rp27
S'evite'
p28
F0.0
ss(I1
I3
I2
I3
I1
I0
I0
tp29
g2
(g3
tp30
Rp31
S'intercepte'
p32
F142.99211183463038
sS'attaquant'
p33
F-62.07546385158271
sS'fonce_Strat'
p34
F-154.29091364088234
sS'evite'
p35
F-14.620109798898728
sS'goal'
p36
F-95.20928174237
ss(I2
I1
I3
I1
I2
I0
I0
tp37
g2
(g3
tp38
Rp39
S'intercepte'
p40
F86.58030402496577
sS'attaquant'
p41
F-76.12735207455599
sS'fonce_Strat'
p42
F-9.456009891130368
sS'evite'
p43
F-58.99295634727095
sS'goal'
p44
F0.015224591407758623
ss(I1
I3
I0
I3
I1
I0
I0
tp45
g2
(g3
tp46
Rp47
S'attaquant'
p48
F4.796899320288529
sS'goal'
p49
F-118.65349622578574
sS'evite'
p50
F5.510270790833509
sS'fonce_Strat'
p51
F1.5652698424245886
ss(I0
I3
I3
I1
I1
I0
I0
tp52
g2
(g3
tp53
Rp54
S'intercepte'
p55
F67.5111429530043
sS'attaquant'
p56
F-195.58173691249573
sS'fonce_Strat'
p57
F-6.700200807874879e-06
sS'evite'
p58
F-110.06574499905149
sg10
F-118.4804739633789
ss(I2
I3
I0
I2
I3
I0
I0
tp59
g2
(g3
tp60
Rp61
S'attaquant'
p62
F5.295806124295972
sS'goal'
p63
F10.080000000000002
sS'evite'
p64
F8.085039723563728
sS'fonce_Strat'
p65
F7.768504703265105
ss(I1
I3
I2
I0
I1
I0
I0
tp66
g2
(g3
tp67
Rp68
S'intercepte'
p69
F-2.225838329392574
sS'attaquant'
p70
F-99.99999999999963
sS'fonce_Strat'
p71
F-236.8255822898221
sS'evite'
p72
F-108.42647920721615
sS'goal'
p73
F-5.67842722737922e-13
ss(I0
I1
I3
I0
I1
I0
I0
tp74
g2
(g3
tp75
Rp76
S'attaquant'
p77
F-26.11995267034261
sS'fonce_Strat'
p78
F-17.330134084198267
sS'evite'
p79
F-21.155307992375924
sg10
F8.227255466633487
ss(I1
I3
I1
I1
I2
I0
I0
tp80
g2
(g3
tp81
Rp82
S'intercepte'
p83
F-20.0
sS'attaquant'
p84
F-168.4648321260853
sS'goal'
p85
F-3.478240133332751e-09
sS'evite'
p86
F-175.1716267756927
sS'fonce_Strat'
p87
F-197.85087521466008
ss(I2
I3
I3
I1
I2
I0
I0
tp88
g2
(g3
tp89
Rp90
S'intercepte'
p91
F196.48156279074985
sS'attaquant'
p92
F-119.99999999640984
sS'fonce_Strat'
p93
F-122.3733011957994
sS'evite'
p94
F-179.07765896241636
sS'goal'
p95
F-1.1321523171750645
ss(I2
I2
I3
I0
I2
I0
I0
tp96
g2
(g3
tp97
Rp98
S'intercepte'
p99
F91.47213188063479
sS'attaquant'
p100
F-102.1985601490518
sS'fonce_Strat'
p101
F-99.99909396796195
sS'evite'
p102
F-5.4540906352831e-44
sg10
F-138.15532562179524
ss(I1
I2
I3
I1
I3
I0
I0
tp103
g2
(g3
tp104
Rp105
S'fonce_Strat'
p106
F0.0
ss(I3
I3
I2
I2
I2
I0
I0
tp107
g2
(g3
tp108
Rp109
g62
F0.025644455830726987
sS'goal'
p110
F0.0
sg64
F-85.86139281896092
sg65
F5.547106660322628e-06
ss(I3
I2
I3
I1
I2
I0
I0
tp111
g2
(g3
tp112
Rp113
S'intercepte'
p114
F47.56694099889272
sS'fonce_Strat'
p115
F0.0
ss(I1
I1
I3
I1
I2
I0
I0
tp116
g2
(g3
tp117
Rp118
S'attaquant'
p119
F0.22575064871608128
sS'fonce_Strat'
p120
F-78.52864801143727
sS'evite'
p121
F-73.66620871290516
sg44
F0.4013410278887187
ss(I2
I3
I2
I3
I2
I0
I0
tp122
g2
(g3
tp123
Rp124
S'intercepte'
p125
F198.83378623557084
sS'attaquant'
p126
F-1.7987015247539947e-06
sS'fonce_Strat'
p127
F-121.80289854230287
sS'evite'
p128
F-298.8301704910833
sS'goal'
p129
F-150.19459780610694
ss(I1
I3
I0
I3
I2
I0
I0
tp130
g2
(g3
tp131
Rp132
g48
F1.7638950551330055
sS'goal'
p133
F-100.00000001988812
sg50
F0.7988023982570814
sg51
F-72.90862528195686
ss(I3
I3
I0
I3
I0
I0
I0
tp134
g2
(g3
tp135
Rp136
g48
F-32.411073884948365
sS'goal'
p137
F-63.93117310388887
sg50
F-34.43555405655884
sg51
F-67.09673668308292
ss(I3
I3
I2
I3
I0
I0
I0
tp138
g2
(g3
tp139
Rp140
g62
F5.480189074542266
sg65
F0.5849236437942714
sg64
F-172.11265275713075
sg44
F0.0008843593239582284
ss(I2
I3
I0
I2
I0
I0
I0
tp141
g2
(g3
tp142
Rp143
g62
F-157.11258687799597
sS'goal'
p144
F-178.52516630379546
sg64
F-96.1059568990373
sg65
F-26.43895828959794
ss(I1
I3
I2
I0
I0
I0
I0
tp145
g2
(g3
tp146
Rp147
S'intercepte'
p148
F0.0
sS'attaquant'
p149
F-106.34954410113932
sS'fonce_Strat'
p150
F-84.9447491912769
sS'evite'
p151
F-154.812849705817
sS'goal'
p152
F-0.007996208619118223
ss(I2
I3
I2
I2
I0
I0
I0
tp153
g2
(g3
tp154
Rp155
g62
F-299.3674311256706
sg65
F-146.04635492985784
sg64
F-2.1809213102862618e-08
sg44
F-142.26280141542495
ss(I0
I1
I3
I0
I0
I0
I0
tp156
g2
(g3
tp157
Rp158
S'intercepte'
p159
F23.04
sS'attaquant'
p160
F-1.515610611785745
sS'fonce_Strat'
p161
F-79.90044633835689
sS'evite'
p162
F-194.0395513450576
sg10
F-63.53544423771176
ss(I1
I3
I1
I1
I1
I0
I0
tp163
g2
(g3
tp164
Rp165
S'intercepte'
p166
F-78.67628887637585
sS'attaquant'
p167
F-199.94929397591392
sS'fonce_Strat'
p168
F-2.1662664497855997e-09
sS'evite'
p169
F-113.32642152176416
sS'goal'
p170
F-99.9551019380238
ss(I2
I3
I3
I1
I3
I0
I0
tp171
g2
(g3
tp172
Rp173
g62
F-91.40982604601462
sS'fonce_Strat'
p174
F-119.40900729135384
sg64
F-198.1193353187689
sg44
F-199.31742379777717
ss(I1
I2
I3
I1
I0
I0
I0
tp175
g2
(g3
tp176
Rp177
S'intercepte'
p178
F189.2607977003841
sS'attaquant'
p179
F8.094499158043278e-18
sS'fonce_Strat'
p180
F-138.39404377180097
sS'evite'
p181
F-58.12338353798752
sS'goal'
p182
F-79.07848099369849
ss(I0
I3
I3
I1
I0
I0
I0
tp183
g2
(g3
tp184
Rp185
S'intercepte'
p186
F-26.901911926115794
sS'attaquant'
p187
F-197.77686464912264
sS'fonce_Strat'
p188
F-0.07804022788953283
sS'evite'
p189
F-96.93956866113122
sg44
F-249.36875540768995
ss(I3
I3
I3
I1
I3
I0
I0
tp190
g2
(g3
tp191
Rp192
S'intercepte'
p193
F37.7841706143318
sg62
F7.874780381975535
sS'fonce_Strat'
p194
F4.907262328521296
sg64
F6.337035265324111
sg44
F9.478869261390345
ss(I2
I3
I1
I2
I3
I0
I0
tp195
g2
(g3
tp196
Rp197
g62
F7.0519504854734985
sS'goal'
p198
F-76.07487063137096
sg64
F8.145449976727399
sg65
F8.544086557187079
ss(I3
I2
I3
I1
I3
I0
I0
tp199
g2
(g3
tp200
Rp201
S'intercepte'
p202
F16.58394109267451
sS'fonce_Strat'
p203
F57.389579249540745
ss(I3
I3
I1
I0
I2
I0
I0
tp204
g2
(g3
tp205
Rp206
g62
F-67.46162573530985
sS'goal'
p207
F0.0
sS'evite'
p208
F0.0
sg65
F0.0026265162525784215
ss(I3
I3
I0
I3
I1
I0
I0
tp209
g2
(g3
tp210
Rp211
g48
F-69.9998248519782
sS'goal'
p212
F-233.60682241291045
sg50
F-174.630440124544
sg51
F-385.3500531281735
ss(I3
I3
I2
I3
I1
I0
I0
tp213
g2
(g3
tp214
Rp215
g62
F0.017532797962029972
sg65
F6.126049273223565e-09
sg64
F0.004936636266297066
sg44
F-198.79691264090457
ss(I2
I3
I0
I2
I1
I0
I0
tp216
g2
(g3
tp217
Rp218
g62
F-178.0567003683714
sS'goal'
p219
F-56.14542955212101
sg64
F-156.5183389586554
sg65
F-19.266574349599573
ss(I2
I3
I2
I2
I1
I0
I0
tp220
g2
(g3
tp221
Rp222
g62
F-119.8935453222782
sg65
F-214.15543926737254
sg64
F-90.62102409466112
sg44
F-0.000832702115216292
ss(I1
I3
I1
I1
I0
I0
I0
tp223
g2
(g3
tp224
Rp225
S'intercepte'
p226
F-20.87248479685744
sS'attaquant'
p227
F-7.81817700972019
sS'fonce_Strat'
p228
F-194.2002106560088
sS'evite'
p229
F-126.44666154040775
sS'goal'
p230
F-158.4392441604137
ss(I2
I3
I3
I1
I0
I0
I0
tp231
g2
(g3
tp232
Rp233
S'intercepte'
p234
F1.8753557993749353e-07
sg62
F-18.07139522317881
sS'fonce_Strat'
p235
F-74.6910883891723
sg64
F-92.04578476749411
sg44
F-99.80393863888746
ss(I2
I3
I0
I1
I1
I0
I0
tp236
g2
(g3
tp237
Rp238
S'intercepte'
p239
F-15.426101682564838
sS'attaquant'
p240
F-1.3757642437160535
sS'goal'
p241
F-295.30269707608727
sg64
F-201.4567501907473
sS'fonce_Strat'
p242
F-198.8414653405262
ss(I1
I2
I3
I1
I1
I0
I0
tp243
g2
(g3
tp244
Rp245
S'intercepte'
p246
F119.97403851570732
sS'attaquant'
p247
F-3.4789903891756036e-25
sS'fonce_Strat'
p248
F-69.10216137978016
sS'evite'
p249
F-99.52148674363222
sS'goal'
p250
F-145.3987072895896
ss(I3
I3
I3
I1
I2
I0
I0
tp251
g2
(g3
tp252
Rp253
S'intercepte'
p254
F197.7263235007654
sS'attaquant'
p255
F-99.96753527702545
sS'goal'
p256
F-7.591616888521296
sg64
F-86.62870803265011
sS'fonce_Strat'
p257
F-99.26213023705162
ss(I2
I3
I2
I0
I2
I0
I0
tp258
g2
(g3
tp259
Rp260
S'intercepte'
p261
F-0.01635329995280375
sS'attaquant'
p262
F-2.325881066220557e-13
sS'fonce_Strat'
p263
F-106.89752056842039
sS'evite'
p264
F-211.60030855095928
sS'goal'
p265
F-99.99999911148097
ss(I1
I3
I1
I0
I2
I0
I0
tp266
g2
(g3
tp267
Rp268
S'attaquant'
p269
F-142.25252546361696
sS'fonce_Strat'
p270
F-221.872171350346
sS'evite'
p271
F-116.10952056807132
sS'goal'
p272
F-2.9283803070439864
ss(I1
I1
I3
I1
I0
I0
I0
tp273
g2
(g3
tp274
Rp275
S'intercepte'
p276
F99.93932279569296
sS'attaquant'
p277
F-0.2951270067504216
sS'fonce_Strat'
p278
F-86.66145017086225
sS'evite'
p279
F-57.46993499075197
sg44
F-192.52516693941118
ss(I0
I3
I1
I0
I1
I0
I0
tp280
g2
(g3
tp281
Rp282
S'intercepte'
p283
F0.0
sS'attaquant'
p284
F-0.22269691030750466
sS'fonce_Strat'
p285
F-111.2862129670309
sS'evite'
p286
F-87.88668168353419
sS'goal'
p287
F-93.14051650839554
ss(I0
I2
I3
I1
I2
I0
I0
tp288
g2
(g3
tp289
Rp290
g62
F5.575181184444116
sS'fonce_Strat'
p291
F-157.4635435677657
sg64
F5.160496904305559
sg44
F9.744737507916735
ss(I0
I3
I2
I2
I2
I0
I0
tp292
g2
(g3
tp293
Rp294
g62
F-0.018500695955268258
sg65
F-99.33675063236088
sg64
F-266.7183094742203
sg44
F-134.46390624447608
ss(I3
I3
I1
I0
I3
I0
I0
tp295
g2
(g3
tp296
Rp297
S'attaquant'
p298
F-0.6587703913593723
sS'goal'
p299
F-94.73302616204137
sS'evite'
p300
F-63.222784000000004
sS'fonce_Strat'
p301
F-79.87661090557806
ss(I3
I3
I3
I3
I1
I0
I0
tp302
g2
(g3
tp303
Rp304
g62
F1.6075342196001574
sg65
F-132.11501565368604
sg64
F5.648396066254785e-07
sg44
F0.003568619148555458
ss(I3
I3
I2
I3
I2
I0
I0
tp305
g2
(g3
tp306
Rp307
g62
F1.8175266811738442
sS'goal'
p308
F0.0
sg64
F1.4368573541219496
sg65
F2.1221185757778294
ss(I1
I1
I3
I0
I2
I0
I0
tp309
g2
(g3
tp310
Rp311
S'intercepte'
p312
F20.0
sS'attaquant'
p313
F-5.097916426078966
sS'fonce_Strat'
p314
F3.2674043809791975
sS'evite'
p315
F4.030043534804298
sg10
F2.125893777359983
ss(I1
I3
I2
I0
I2
I0
I0
tp316
g2
(g3
tp317
Rp318
S'attaquant'
p319
F-0.015364829815008358
sS'fonce_Strat'
p320
F-160.96984240241957
sS'evite'
p321
F-99.99999999999893
sg10
F-104.40557344981926
ss(I2
I3
I2
I2
I2
I0
I0
tp322
g2
(g3
tp323
Rp324
S'attaquant'
p325
F6.595575232729854
sS'fonce_Strat'
p326
F2.1408375102841064
sS'evite'
p327
F7.989402820930481
sS'goal'
p328
F2.4308875707824895
ss(I2
I3
I3
I1
I1
I0
I0
tp329
g2
(g3
tp330
Rp331
S'intercepte'
p332
F198.84707849539316
sS'attaquant'
p333
F-115.99730500156417
sS'fonce_Strat'
p334
F-99.9999215362283
sS'evite'
p335
F-1.3089443899361796e-09
sS'goal'
p336
F-99.91987491607749
ss(I2
I3
I0
I1
I0
I0
I0
tp337
g2
(g3
tp338
Rp339
S'intercepte'
p340
F-20.0
sg62
F1.549540820865137
sS'goal'
p341
F-3.8442178877882704
sg64
F-79.66184414970111
sg65
F-18.473302182816564
ss(I1
I3
I2
I1
I0
I0
I0
tp342
g2
(g3
tp343
Rp344
S'intercepte'
p345
F187.7576785327635
sS'attaquant'
p346
F-99.69096381494106
sS'fonce_Strat'
p347
F-1.506247489025959e-07
sS'evite'
p348
F-199.0776627945647
sS'goal'
p349
F-110.13251690082814
ss(I0
I1
I3
I1
I0
I0
I0
tp350
g2
(g3
tp351
Rp352
S'intercepte'
p353
F-4.0
sS'attaquant'
p354
F6.721545833022168
sS'fonce_Strat'
p355
F-30.024402616319996
sS'evite'
p356
F-125.33501081552461
sg44
F4.610590921272081
ss(I3
I2
I3
I0
I3
I0
I0
tp357
g2
(g3
tp358
Rp359
S'fonce_Strat'
p360
F0.0
ss(I2
I3
I1
I2
I1
I0
I0
tp361
g2
(g3
tp362
Rp363
g62
F-259.3284900027028
sS'goal'
p364
F-141.6942426346057
sg64
F-0.34312668386052775
sg65
F-158.06408576399502
ss(I2
I3
I3
I2
I1
I0
I0
tp365
g2
(g3
tp366
Rp367
S'intercepte'
p368
F0.0
sg48
F-127.99440217259703
sg51
F-99.84527988101665
sg50
F-5.461309470305357
sg10
F-196.40233462744794
ss(I0
I3
I1
I0
I0
I0
I0
tp369
g2
(g3
tp370
Rp371
S'intercepte'
p372
F-57.12805232640001
sS'attaquant'
p373
F-136.27607969977666
sS'fonce_Strat'
p374
F-1.4931021826655348e-06
sS'evite'
p375
F-98.60917498381562
sS'goal'
p376
F-97.68574292318499
ss(I0
I2
I3
I1
I1
I0
I0
tp377
g2
(g3
tp378
Rp379
S'intercepte'
p380
F51.232
sS'attaquant'
p381
F5.150697914725023e-09
sS'fonce_Strat'
p382
F-126.1483109288182
sS'evite'
p383
F-99.98670766804433
sS'goal'
p384
F-157.6848176563423
ss(I1
I2
I3
I2
I0
I0
I0
tp385
g2
(g3
tp386
Rp387
g62
F-12.334761776592826
sg65
F-62.4182817990996
sg64
F-34.48631213283426
sg44
F2.2756226560932413
ss(I2
I0
I3
I0
I2
I0
I0
tp388
g2
(g3
tp389
Rp390
S'attaquant'
p391
F0.0
sS'fonce_Strat'
p392
F0.0
sS'evite'
p393
F89.26258176
ss(I3
I3
I2
I3
I3
I0
I0
tp394
g2
(g3
tp395
Rp396
S'intercepte'
p397
F124.5600730182596
sS'attaquant'
p398
F-125.83354047819815
sS'fonce_Strat'
p399
F-0.4567479937667314
sS'evite'
p400
F-265.48996522099753
sS'goal'
p401
F-249.74057749833403
ss(I0
I3
I0
I0
I0
I0
I0
tp402
g2
(g3
tp403
Rp404
S'intercepte'
p405
F0.0
sg325
F5.08723295135665
sS'goal'
p406
F-16.0
sg327
F5.669648632782551
sg326
F5.565903780283396
ss(I0
I3
I1
I1
I2
I0
I0
tp407
g2
(g3
tp408
Rp409
g48
F-128.1444021883553
sS'goal'
p410
F-111.00448621672409
sg50
F-0.001203040073133822
sS'fonce_Strat'
p411
F-150.7453168083009
ss(I2
I3
I2
I0
I1
I0
I0
tp412
g2
(g3
tp413
Rp414
S'intercepte'
p415
F-6.5536
sS'attaquant'
p416
F-99.9867077221797
sS'fonce_Strat'
p417
F-161.08667002271454
sS'evite'
p418
F-275.3298618184329
sS'goal'
p419
F-0.0017798635770889548
ss(I3
I3
I0
I0
I3
I0
I0
tp420
g2
(g3
tp421
Rp422
g325
F0.33006359912457023
sS'goal'
p423
F0.0
sS'evite'
p424
F0.0
sg326
F1.9528488566485438
ss(I2
I2
I3
I2
I1
I0
I0
tp425
g2
(g3
tp426
Rp427
S'intercepte'
p428
F0.0
sg62
F-119.32300865578024
sg65
F1.0618713769493238
sg64
F0.08864462819034544
sg44
F-56.01359241722609
ss(I2
I3
I0
I1
I3
I0
I0
tp429
g2
(g3
tp430
Rp431
S'goal'
p432
F-9.905268326400002
ss(I1
I3
I2
I1
I1
I0
I0
tp433
g2
(g3
tp434
Rp435
S'intercepte'
p436
F199.02824469364018
sS'attaquant'
p437
F-100.98337343005043
sS'fonce_Strat'
p438
F-4.271973804857939e-09
sS'evite'
p439
F-105.54450403259997
sS'goal'
p440
F-195.60194809690668
ss(I0
I3
I0
I3
I2
I0
I0
tp441
g2
(g3
tp442
Rp443
S'goal'
p444
F-52.321066576691734
ss(I2
I3
I1
I2
I0
I0
I0
tp445
g2
(g3
tp446
Rp447
g62
F-245.37064233673414
sS'goal'
p448
F-102.93260953572758
sg64
F-13.117159600356274
sg65
F-157.38227225834584
ss(I1
I3
I1
I0
I0
I0
I0
tp449
g2
(g3
tp450
Rp451
S'intercepte'
p452
F-67.232
sS'attaquant'
p453
F-85.47637874709687
sS'goal'
p454
F-0.8569649971763778
sS'evite'
p455
F-92.76347754654455
sS'fonce_Strat'
p456
F-61.03106048928765
ss(I2
I3
I3
I2
I0
I0
I0
tp457
g2
(g3
tp458
Rp459
g48
F-99.69783260106331
sg51
F-93.56958810577088
sg50
F-92.44214608859272
sg10
F-0.15409925398674343
ss(I0
I2
I3
I1
I0
I0
I0
tp460
g2
(g3
tp461
Rp462
S'intercepte'
p463
F-7.012629567898645
sS'attaquant'
p464
F-19.376044118903224
sS'fonce_Strat'
p465
F-44.75792431559579
sS'evite'
p466
F-53.57496388550656
sg44
F0.07022907988260838
ss(I3
I3
I3
I0
I2
I0
I0
tp467
g2
(g3
tp468
Rp469
g62
F6.777570820030553
sg65
F2.724175910664951
sg64
F3.118828733016023
sg44
F5.733144841138937
ss(I0
I3
I2
I2
I1
I0
I0
tp470
g2
(g3
tp471
Rp472
g62
F-4.176920537458153
sg65
F-72.86683715814367
sg64
F-106.26417513121024
sg44
F-125.49379692294485
ss(I1
I3
I3
I3
I2
I0
I0
tp473
g2
(g3
tp474
Rp475
g62
F3.3468441822457007
sg65
F7.48200416117108
sg64
F2.9475226711988336
sg44
F3.7574443180391452
ss(I2
I3
I1
I3
I2
I0
I0
tp476
g2
(g3
tp477
Rp478
g62
F-113.94011472842564
sg65
F-79.28260415104401
sg64
F-163.85991273637097
sg44
F-277.67574209387254
ss(I1
I1
I3
I0
I0
I0
I0
tp479
g2
(g3
tp480
Rp481
S'intercepte'
p482
F48.8
sS'attaquant'
p483
F-1.0667212637913277
sS'fonce_Strat'
p484
F5.035844709985382
sS'evite'
p485
F10.345809775750688
sg44
F-165.1213260697547
ss(I3
I3
I0
I0
I2
I0
I0
tp486
g2
(g3
tp487
Rp488
g62
F1.5177733103962499
sS'goal'
p489
F0.0
sg64
F-7.0630459722681636
sg65
F-12.862338584818897
ss(I2
I3
I0
I1
I2
I0
I0
tp490
g2
(g3
tp491
Rp492
S'intercepte'
p493
F-16.01595270121009
sg62
F-264.7264761471963
sS'goal'
p494
F-127.60051519404428
sg64
F-0.28897124514702643
sS'fonce_Strat'
p495
F-128.32776371774793
ss(I1
I3
I2
I1
I2
I0
I0
tp496
g2
(g3
tp497
Rp498
S'attaquant'
p499
F-199.99721240685017
sS'fonce_Strat'
p500
F-151.2409641893183
sS'evite'
p501
F-174.3655925410291
sS'goal'
p502
F-4.463429817103423e-27
ss(I1
I3
I1
I0
I1
I0
I0
tp503
g2
(g3
tp504
Rp505
S'intercepte'
p506
F-64.790784
sS'attaquant'
p507
F-2.5525177359705402e-09
sS'fonce_Strat'
p508
F-154.79582635764118
sS'evite'
p509
F-199.87323532544562
sS'goal'
p510
F-173.78554978318613
ss(I1
I2
I3
I2
I2
I0
I0
tp511
g2
(g3
tp512
Rp513
g62
F1.2484589151461545
sg65
F1.3872368417672516
sg64
F-134.3257611520427
sg44
F2.2111838884967625
ss(I0
I3
I0
I2
I1
I0
I0
tp514
g2
(g3
tp515
Rp516
g62
F7.43727127897101
sS'goal'
p517
F-16.610434734032257
sg64
F-14.316659491771304
sg65
F5.0415754479900725
ss(I1
I3
I3
I3
I1
I0
I0
tp518
g2
(g3
tp519
Rp520
S'intercepte'
p521
F-12.8
sS'attaquant'
p522
F-94.12510031357857
sS'fonce_Strat'
p523
F-9.149316496058457
sS'evite'
p524
F-117.5035033996058
sg44
F-204.05818659828972
ss(I1
I3
I1
I3
I1
I0
I0
tp525
g2
(g3
tp526
Rp527
g62
F-13.794851630209948
sg65
F2.487121937131115
sg64
F3.066460999243962
sg44
F2.7516643905586484
ss(I1
I1
I3
I0
I1
I0
I0
tp528
g2
(g3
tp529
Rp530
S'intercepte'
p531
F6.399711025313036
sS'attaquant'
p532
F-97.18386315865185
sS'fonce_Strat'
p533
F-59.039941025119774
sS'evite'
p534
F-67.23961071007663
sg10
F-0.07938326743371013
ss(I0
I3
I1
I1
I0
I0
I0
tp535
g2
(g3
tp536
Rp537
S'intercepte'
p538
F-66.78164003726295
sS'attaquant'
p539
F-98.04581485922517
sS'goal'
p540
F-76.21383887712845
sS'evite'
p541
F-89.29666621449459
sS'fonce_Strat'
p542
F-79.95230064489716
ss(I3
I2
I3
I2
I2
I0
I0
tp543
g2
(g3
tp544
Rp545
g62
F2.596372355520795
sg65
F6.99796700867482
sg64
F1.2444070290331344
sg44
F8.68948536490543
ss(I3
I3
I1
I3
I3
I0
I0
tp546
g2
(g3
tp547
Rp548
S'intercepte'
p549
F195.40657048635094
sS'attaquant'
p550
F-255.98894371546697
sS'fonce_Strat'
p551
F-0.00791776508884891
sS'evite'
p552
F-232.4910613214875
sS'goal'
p553
F-197.69749416230565
ss(I1
I3
I0
I0
I2
I0
I0
tp554
g2
(g3
tp555
Rp556
S'attaquant'
p557
F-40.0
sS'goal'
p558
F-72.0
sS'evite'
p559
F-59.02848
sg65
F-10.157086497620307
ss(I0
I3
I3
I2
I2
I0
I0
tp560
g2
(g3
tp561
Rp562
g62
F-21.82506709397084
sg65
F-99.02826930817294
sg64
F-89.49491622493194
sg44
F-79.3821521597036
ss(I1
I3
I2
I1
I3
I0
I0
tp563
g2
(g3
tp564
Rp565
g62
F-126.61274979186075
sg65
F-96.31634970395825
sg64
F-132.7031793228111
sg44
F-38.321946417423135
ss(I3
I3
I3
I2
I0
I0
I0
tp566
g2
(g3
tp567
Rp568
g48
F2.280513713453634
sg51
F7.298944036883396
sg50
F1.0622782243077196
sg10
F7.706592393341668
ss(I3
I3
I0
I1
I1
I0
I0
tp569
g2
(g3
tp570
Rp571
g62
F-43.63601217363298
sS'goal'
p572
F-35.02157039084368
sg64
F-165.31700222893062
sg65
F-60.157583302966486
ss(I2
I3
I3
I2
I2
I0
I0
tp573
g2
(g3
tp574
Rp575
g48
F-172.49675005958318
sg51
F0.03930124149236108
sg50
F-35.068539194414
sg10
F-19.945570369555178
ss(I2
I3
I0
I0
I1
I0
I0
tp576
g2
(g3
tp577
Rp578
S'intercepte'
p579
F0.0
sS'attaquant'
p580
F-57.6
sS'goal'
p581
F-14.7456
sg64
F-59.03089135901147
sg65
F-78.55573973214524
ss(I0
I3
I0
I2
I2
I0
I0
tp582
g2
(g3
tp583
Rp584
g62
F6.584327777243952
sS'goal'
p585
F-142.9518291171643
sg64
F7.4662665264730395
sg65
F-70.3877546049772
ss(I2
I0
I3
I0
I1
I0
I0
tp586
g2
(g3
tp587
Rp588
S'evite'
p589
F79.02848
ss(I2
I3
I1
I3
I0
I0
I0
tp590
g2
(g3
tp591
Rp592
g62
F-158.70639382278173
sg65
F-138.07676857992632
sg64
F-65.60078692361309
sg44
F-98.09419404812873
ss(I0
I3
I2
I1
I1
I0
I0
tp593
g2
(g3
tp594
Rp595
S'intercepte'
p596
F45.98912
sS'attaquant'
p597
F-166.42348449036675
sS'fonce_Strat'
p598
F-173.75314814463417
sS'evite'
p599
F-230.1244128286623
sS'goal'
p600
F-0.004172263726428525
ss(I2
I3
I3
I3
I0
I0
I0
tp601
g2
(g3
tp602
Rp603
g62
F1.5288579697539222
sg65
F2.328139737817847
sg64
F-46.2824569880968
sg44
F2.0788950737645577
ss(I0
I3
I1
I1
I1
I0
I0
tp604
g2
(g3
tp605
Rp606
S'intercepte'
p607
F0.0
sS'attaquant'
p608
F-126.02672166395219
sS'fonce_Strat'
p609
F-0.0008724198297543577
sS'evite'
p610
F-199.0643705164826
sS'goal'
p611
F-159.8988102258289
ss(I0
I2
I3
I0
I0
I0
I0
tp612
g2
(g3
tp613
Rp614
S'intercepte'
p615
F60.481394973662724
sS'attaquant'
p616
F-78.6616500935167
sS'fonce_Strat'
p617
F-111.11605474420878
sS'evite'
p618
F-88.30497925799723
sg10
F-4.4553638969945294e-17
ss(I0
I3
I2
I1
I0
I0
I0
tp619
g2
(g3
tp620
Rp621
S'intercepte'
p622
F-35.337419723662954
sS'attaquant'
p623
F-13.150251038530774
sS'fonce_Strat'
p624
F-79.28283648888647
sS'evite'
p625
F-80.55215357093314
sg10
F-73.78731680115717
ss(I1
I3
I0
I0
I1
I0
I0
tp626
g2
(g3
tp627
Rp628
S'intercepte'
p629
F-20.0
sS'attaquant'
p630
F-157.69415699078633
sS'goal'
p631
F-21.091143444890122
sg64
F-59.052549275393076
sS'fonce_Strat'
p632
F-69.63723649590403
ss(I1
I3
I3
I2
I2
I0
I0
tp633
g2
(g3
tp634
Rp635
g48
F-106.4418720174725
sg51
F-29.46586171972451
sg50
F-145.5538809582185
sg10
F-118.49223422835226
ss(I0
I3
I3
I2
I1
I0
I0
tp636
g2
(g3
tp637
Rp638
g62
F-76.5993817342027
sg65
F-37.90811778950677
sg64
F-19.040327778380323
sg44
F-70.58112898342435
ss(I0
I3
I1
I2
I1
I0
I0
tp639
g2
(g3
tp640
Rp641
g48
F-92.23315278885987
sS'goal'
p642
F-55.51774420447725
sg50
F-81.59502621846275
sg51
F-145.18882123829763
ss(I2
I3
I2
I1
I3
I0
I0
tp643
g2
(g3
tp644
Rp645
S'attaquant'
p646
F-185.7441445511168
sg65
F-135.13009268000116
sg64
F-119.99996740789717
sg44
F-9.240112433963779
ss(I3
I3
I0
I1
I2
I0
I0
tp647
g2
(g3
tp648
Rp649
S'intercepte'
p650
F-20.0
sg62
F-116.99782936014977
sS'goal'
p651
F-135.25239409072043
sg64
F-30.588788127468842
sg65
F-115.5238191562119
ss(I3
I3
I3
I1
I1
I0
I0
tp652
g2
(g3
tp653
Rp654
S'intercepte'
p655
F7.37598018047941e-07
sg62
F-181.12564188759967
sg65
F-31.903197109182756
sg64
F-79.53629549274024
sg44
F-74.17570668377269
ss(I2
I1
I3
I1
I3
I0
I0
tp656
g2
(g3
tp657
Rp658
S'fonce_Strat'
p659
F75.5712
ss(I2
I3
I0
I0
I2
I0
I0
tp660
g2
(g3
tp661
Rp662
S'intercepte'
p663
F0.0
sS'attaquant'
p664
F-0.1743849977213723
sS'goal'
p665
F-82.10624575629211
sS'evite'
p666
F-78.2740744914482
sS'fonce_Strat'
p667
F-78.55892290502383
ss(I2
I3
I1
I3
I1
I0
I0
tp668
g2
(g3
tp669
Rp670
g62
F-137.7556601482987
sg65
F-75.17812418960546
sg64
F-25.348928737799135
sg44
F-104.96251507186871
ss(I2
I3
I3
I3
I1
I0
I0
tp671
g2
(g3
tp672
Rp673
g62
F0.08699437553263394
sg65
F0.4478419182873446
sg64
F0.014656150814270814
sg44
F-99.75685135384383
ss(I0
I2
I3
I0
I1
I0
I0
tp674
g2
(g3
tp675
Rp676
S'attaquant'
p677
F-69.26014165743351
sS'fonce_Strat'
p678
F-31.68461971352634
sS'evite'
p679
F1.432272134287192e-06
sg10
F-37.78752654342583
ss(I3
I3
I1
I3
I1
I0
I0
tp680
g2
(g3
tp681
Rp682
g62
F-111.57446027218921
sS'goal'
p683
F-125.79123274484861
sg64
F-194.20021040624098
sg65
F-119.6071173003284
ss(I2
I2
I3
I2
I2
I0
I0
tp684
g2
(g3
tp685
Rp686
g62
F0.038551970074461775
sg65
F-82.71394495349189
sg64
F-35.92545179935345
sg44
F-174.55169387017898
ss(I1
I3
I0
I0
I0
I0
I0
tp687
g2
(g3
tp688
Rp689
S'intercepte'
p690
F0.0
ss(I2
I3
I1
I0
I1
I0
I0
tp691
g2
(g3
tp692
Rp693
S'intercepte'
p694
F-48.8
sS'attaquant'
p695
F-99.99858639735767
sS'fonce_Strat'
p696
F-4.035985588159745
sS'evite'
p697
F-206.81741378157528
sS'goal'
p698
F-73.79577164300747
ss(I3
I3
I2
I0
I2
I0
I0
tp699
g2
(g3
tp700
Rp701
S'attaquant'
p702
F0.0
sS'fonce_Strat'
p703
F0.0
sg64
F-35.436738455064074
sg44
F-71.8902885946354
ss(I0
I3
I2
I1
I2
I0
I0
tp704
g2
(g3
tp705
Rp706
g62
F-183.78970516377885
sS'fonce_Strat'
p707
F-119.36745874346616
sg64
F-153.9197472363812
sg44
F-0.10015301721986632
ss(I2
I3
I2
I1
I2
I0
I0
tp708
g2
(g3
tp709
Rp710
S'intercepte'
p711
F18.08091343852334
sS'attaquant'
p712
F-177.18298624
sS'fonce_Strat'
p713
F-173.78015548212926
sS'evite'
p714
F-159.99975959163618
sS'goal'
p715
F-9.451634893920988e-08
ss(I1
I3
I0
I1
I2
I0
I0
tp716
g2
(g3
tp717
Rp718
g62
F0.7211357637546596
sS'goal'
p719
F-29.85609066041917
sg64
F-66.98851673084424
sS'fonce_Strat'
p720
F-55.410065408
ss(I3
I3
I0
I1
I3
I0
I0
tp721
g2
(g3
tp722
Rp723
S'goal'
p724
F-42.610065408000004
ss(I0
I3
I3
I1
I2
I0
I0
tp725
g2
(g3
tp726
Rp727
g62
F-194.8038864726841
sS'fonce_Strat'
p728
F-105.00804596941528
sg64
F-4.766860123812539
sg44
F-190.67498065660985
ss(I1
I3
I1
I3
I2
I0
I0
tp729
g2
(g3
tp730
Rp731
g48
F-14.773680102432799
sS'goal'
p732
F-74.881556455918
sg50
F-29.966933104664953
sg51
F-65.47065875532198
ss(I2
I3
I3
I3
I2
I0
I0
tp733
g2
(g3
tp734
Rp735
g62
F4.4647513509056
sg65
F3.1361338206828107
sg64
F8.240923278793748
sg44
F0.2224336066144655
ss(I3
I3
I1
I3
I0
I0
I0
tp736
g2
(g3
tp737
Rp738
g62
F-146.54656105596257
sg65
F-110.49805670607059
sg64
F-44.23367463999608
sg44
F-119.41476246882465
ss(I3
I3
I3
I2
I1
I0
I0
tp739
g2
(g3
tp740
Rp741
S'intercepte'
p742
F0.0
sg48
F-199.9999999997064
sg51
F-4.897249223436922
sg50
F-91.42166007092555
sg10
F-182.8190039313027
ss(I3
I3
I3
I3
I0
I0
I0
tp743
g2
(g3
tp744
Rp745
g62
F0.022774589195451785
sg65
F0.05176491978521959
sg64
F0.00813810719062609
sg44
F-172.32377683952996
ss(I2
I2
I3
I1
I3
I0
I0
tp746
g2
(g3
tp747
Rp748
g62
F0.1206927978707768
sS'fonce_Strat'
p749
F0.45068833255186547
sS'evite'
p750
F-66.44128568102849
sg44
F-197.10591059984023
ss(I1
I3
I3
I2
I0
I0
I0
tp751
g2
(g3
tp752
Rp753
g62
F-28.4004706515247
sg65
F-46.339170118898004
sg64
F-56.52422733722916
sg44
F-0.3975944702403723
ss(I1
I3
I1
I2
I0
I0
I0
tp754
g2
(g3
tp755
Rp756
g62
F-149.8164499219572
sS'goal'
p757
F-104.29009288191135
sg64
F-0.5827049947503701
sg65
F-62.29201779669815
ss(I0
I3
I2
I0
I0
I0
I0
tp758
g2
(g3
tp759
Rp760
S'intercepte'
p761
F0.0
sS'attaquant'
p762
F-173.22954237972394
sS'fonce_Strat'
p763
F-86.57831200747827
sS'evite'
p764
F-7.031294292591187e-20
sS'goal'
p765
F-99.7497877993504
ss(I2
I3
I2
I1
I1
I0
I0
tp766
g2
(g3
tp767
Rp768
S'intercepte'
p769
F117.18522966408646
sS'attaquant'
p770
F-99.99980843805739
sS'fonce_Strat'
p771
F-99.99999999999798
sS'evite'
p772
F-194.50244184231977
sS'goal'
p773
F-7.017786844190093e-13
ss(I3
I3
I0
I2
I3
I0
I0
tp774
g2
(g3
tp775
Rp776
S'goal'
p777
F97.6
ss(I1
I2
I3
I2
I1
I0
I0
tp778
g2
(g3
tp779
Rp780
g62
F-70.62521300755321
sg65
F-49.824418108645176
sg64
F-19.729135512360067
sg44
F-141.0035829676768
ss(I1
I3
I2
I2
I3
I0
I0
tp781
g2
(g3
tp782
Rp783
g62
F5.428628932950339
sg65
F4.125720708141861
sg64
F-77.22275403966714
sg44
F2.862270505141576
ss(I1
I0
I3
I0
I1
I0
I0
tp784
g2
(g3
tp785
Rp786
S'attaquant'
p787
F0.0
sS'fonce_Strat'
p788
F0.0
sS'evite'
p789
F6.5536
sg44
F8.960975374736112
ss(I0
I3
I0
I0
I1
I0
I0
tp790
g2
(g3
tp791
Rp792
S'attaquant'
p793
F-72.0
sg326
F5.035516511142081
sg327
F4.553411558713313
sg328
F4.175168794764836
ss(I2
I2
I3
I2
I0
I0
I0
tp794
g2
(g3
tp795
Rp796
S'intercepte'
p797
F0.0
sg62
F-196.7056726074111
sg65
F-37.15859591547391
sg64
F-73.64122448536912
sg44
F-111.08918420278933
ss(I0
I3
I3
I0
I0
I0
I0
tp798
g2
(g3
tp799
Rp800
S'intercepte'
p801
F36.9417905074289
sS'attaquant'
p802
F-149.96527607783804
sS'fonce_Strat'
p803
F-148.15080689354818
sS'evite'
p804
F-1.6521016939605727e-39
sS'goal'
p805
F-233.84330858716766
ss(I1
I3
I3
I2
I1
I0
I0
tp806
g2
(g3
tp807
Rp808
S'intercepte'
p809
F192.62479124972566
sS'attaquant'
p810
F-292.47889678717786
sS'fonce_Strat'
p811
F-196.2881346613952
sS'evite'
p812
F-92.42019639868542
sg10
F-9.506946592683108e-08
ss(I2
I3
I1
I0
I3
I0
I0
tp813
g2
(g3
tp814
Rp815
g62
F-57.73243833325859
sg65
F-68.88040058380432
sS'evite'
p816
F-36.0
sg44
F-73.26846026747153
ss(I1
I3
I1
I2
I1
I0
I0
tp817
g2
(g3
tp818
Rp819
g62
F-84.5374856903799
sS'goal'
p820
F-115.74400558986397
sg64
F-38.262950596403826
sg65
F-280.46801225106566
ss(I2
I2
I3
I1
I2
I0
I0
tp821
g2
(g3
tp822
Rp823
S'intercepte'
p824
F97.18525171775696
sS'attaquant'
p825
F4.5632893947368064e-10
sS'fonce_Strat'
p826
F-99.99190704002619
sS'evite'
p827
F-139.25362317820404
sg10
F-140.38814553301472
ss(I0
I3
I1
I2
I2
I0
I0
tp828
g2
(g3
tp829
Rp830
g48
F-141.7279104877756
sS'goal'
p831
F-113.12001740461852
sg50
F-83.98847980953165
sg51
F-75.35938645648585
ss(I0
I3
I2
I0
I1
I0
I0
tp832
g2
(g3
tp833
Rp834
S'intercepte'
p835
F0.0
sS'attaquant'
p836
F-66.22307376330063
sS'fonce_Strat'
p837
F-8.83608462003938
sS'evite'
p838
F-86.50740789218764
sg44
F-94.50244289391017
ss(I2
I3
I2
I1
I0
I0
I0
tp839
g2
(g3
tp840
Rp841
S'intercepte'
p842
F-19.3462272
sS'attaquant'
p843
F-101.54203851570733
sS'fonce_Strat'
p844
F-0.31730999202879795
sg64
F-135.25677516715047
sg44
F-69.27303265964872
ss(I1
I3
I0
I1
I0
I0
I0
tp845
g2
(g3
tp846
Rp847
S'intercepte'
p848
F-17.42308995041732
sS'attaquant'
p849
F-147.82848
sS'goal'
p850
F-83.22278402329889
sg64
F-98.22314436407217
sS'fonce_Strat'
p851
F-167.69890531328133
ss(I3
I3
I1
I2
I2
I0
I0
tp852
g2
(g3
tp853
Rp854
g62
F-12.815410302541654
sS'goal'
p855
F-66.48258411927438
sg64
F-86.77441324111362
sg65
F-296.46431720135655
ss(I1
I3
I3
I1
I1
I0
I0
tp856
g2
(g3
tp857
Rp858
S'intercepte'
p859
F198.8470784953926
sS'attaquant'
p860
F-103.02629142900125
sS'fonce_Strat'
p861
F-100.25949511542521
sS'evite'
p862
F-8.333370359553707e-09
sS'goal'
p863
F-223.7070561628947
ss(I3
I3
I2
I1
I2
I0
I0
tp864
g2
(g3
tp865
Rp866
S'intercepte'
p867
F-99.40968068719141
sg62
F-95.51420740564335
sS'goal'
p868
F-0.0006980128640679826
sS'evite'
p869
F-79.02846789490225
sg65
F-79.07740282679956
ss(I1
I3
I2
I2
I2
I0
I0
tp870
g2
(g3
tp871
Rp872
g62
F-61.64014642829163
sg65
F-99.22610148080405
sg64
F-117.88568778784423
sg44
F-4.20482289311939
ss(I2
I1
I3
I0
I1
I0
I0
tp873
g2
(g3
tp874
Rp875
S'intercepte'
p876
F0.0
sS'attaquant'
p877
F-14.7456
sS'fonce_Strat'
p878
F-64.0
sS'evite'
p879
F-37.80703407579644
sg10
F-68.14686056289226
ss(I3
I3
I3
I3
I2
I0
I0
tp880
g2
(g3
tp881
Rp882
g62
F0.10770907934582201
sg65
F4.982288529069139
sg64
F4.568487725959097
sg44
F5.376253481581372
ss(I2
I3
I1
I0
I2
I0
I0
tp883
g2
(g3
tp884
Rp885
S'intercepte'
p886
F-50.27766279631452
sS'attaquant'
p887
F-7.846369473529015e-05
sS'fonce_Strat'
p888
F-199.6905149903154
sS'evite'
p889
F-199.97392022965545
sS'goal'
p890
F-104.27321392365269
ss(I1
I3
I1
I2
I2
I0
I0
tp891
g2
(g3
tp892
Rp893
g48
F-0.5343627705369896
sS'goal'
p894
F-76.83620598613378
sg50
F-95.38439516102642
sg51
F-84.9406528004314
ss(I3
I3
I1
I2
I0
I0
I0
tp895
g2
(g3
tp896
Rp897
g62
F-80.30023487624976
sg65
F-243.5326496905248
sg64
F-133.3781398110624
sg44
F-30.718360940625594
ss(I2
I2
I3
I1
I1
I0
I0
tp898
g2
(g3
tp899
Rp900
S'intercepte'
p901
F159.0399215362283
sS'attaquant'
p902
F-188.84557497840575
sS'fonce_Strat'
p903
F-5.539042437991839e-16
sS'evite'
p904
F-105.03801108791755
sg10
F-108.56195342896024
ss(I1
I3
I0
I1
I1
I0
I0
tp905
g2
(g3
tp906
Rp907
S'intercepte'
p908
F-21.160037525158796
sS'attaquant'
p909
F-139.69289463034542
sS'goal'
p910
F-67.13833231287384
sg64
F-165.39066849095346
sS'fonce_Strat'
p911
F-149.88665610671816
ss(I0
I1
I3
I1
I1
I0
I0
tp912
g2
(g3
tp913
Rp914
S'attaquant'
p915
F-86.27644211999022
sS'fonce_Strat'
p916
F1.915090511066905
sS'evite'
p917
F-98.1198391116042
sg44
F0.7586327566379839
ss(I1
I3
I3
I1
I0
I0
I0
tp918
g2
(g3
tp919
Rp920
S'intercepte'
p921
F199.52776335171305
sS'attaquant'
p922
F-138.66838016438567
sS'fonce_Strat'
p923
F-168.19084128307696
sS'evite'
p924
F-3.4175304801523583e-09
sS'goal'
p925
F-128.45012936600236
ss(I2
I3
I1
I1
I0
I0
I0
tp926
g2
(g3
tp927
Rp928
S'intercepte'
p929
F0.0
sS'attaquant'
p930
F-281.59349334744445
sS'goal'
p931
F-129.73444186112
sg64
F-18.765357775352264
sg65
F-153.20086436206697
ss(I3
I3
I2
I1
I3
I0
I0
tp932
g2
(g3
tp933
Rp934
S'attaquant'
p935
F-95.601953488896
sg65
F-133.23430972359955
sS'evite'
p936
F0.0
sg44
F-182.48769489138246
ss(I1
I3
I2
I2
I1
I0
I0
tp937
g2
(g3
tp938
Rp939
S'intercepte'
p940
F71.40270896728461
sg62
F-235.32712370093105
sS'goal'
p941
F-134.03066025794635
sg64
F-8.785544414033963e-06
sg65
F-163.08251160823778
ss(I2
I3
I2
I0
I3
I0
I0
tp942
g2
(g3
tp943
Rp944
g62
F-58.483713027095256
sg65
F1.0799122418835754
sS'evite'
p945
F-36.0
sg44
F-17.672956120843807
ss(I1
I3
I0
I2
I1
I0
I0
tp946
g2
(g3
tp947
Rp948
g62
F-119.4746883937041
sS'goal'
p949
F-78.73684241777875
sg64
F-47.62602329660524
sg65
F-32.91473963170583
ss(I0
I3
I3
I0
I1
I0
I0
tp950
g2
(g3
tp951
Rp952
S'intercepte'
p953
F27.399294196375287
sS'attaquant'
p954
F-99.8140903512813
sS'fonce_Strat'
p955
F-7.107383721394191e-32
sS'evite'
p956
F-98.84278602055149
sS'goal'
p957
F-137.81260570097962
ss(I2
I1
I3
I1
I1
I0
I0
tp958
g2
(g3
tp959
Rp960
S'intercepte'
p961
F97.23595109106967
sS'attaquant'
p962
F-28.369953488895998
sS'fonce_Strat'
p963
F26.214395738191865
sS'evite'
p964
F-16.6464895352832
sg44
F7.819306329223893
ss(I0
I3
I0
I1
I2
I0
I0
tp965
g2
(g3
tp966
Rp967
g62
F-94.25392958341486
sS'goal'
p968
F-52.73839450091322
sg64
F1.732933242946452
sg65
F5.784808117729278
ss(I1
I3
I1
I2
I3
I0
I0
tp969
g2
(g3
tp970
Rp971
S'goal'
p972
F97.6
ss(I3
I3
I1
I2
I1
I0
I0
tp973
g2
(g3
tp974
Rp975
g62
F-195.48690834681742
sS'goal'
p976
F-166.83781490269462
sg64
F-297.68743086786935
sg65
F-2.8892849361706054
ss(I2
I2
I3
I1
I0
I0
I0
tp977
g2
(g3
tp978
Rp979
S'intercepte'
p980
F0.0011809517789141868
sg62
F-14.740713200266374
sS'fonce_Strat'
p981
F-10.24
sg64
F-55.919593064668064
sg44
F-142.93148093202825
ss(I1
I3
I3
I1
I3
I0
I0
tp982
g2
(g3
tp983
Rp984
g62
F5.619961023732253
sg65
F-31.315635559130342
sg64
F-94.25930513533355
sg44
F-36.0703351472876
ss(I2
I3
I1
I1
I1
I0
I0
tp985
g2
(g3
tp986
Rp987
S'intercepte'
p988
F-0.016615348183104724
sS'attaquant'
p989
F-173.78015548212926
sS'fonce_Strat'
p990
F-6.732079399549753e-27
sS'evite'
p991
F-119.99769596817131
sS'goal'
p992
F-262.5543879702017
ss(I0
I3
I1
I3
I2
I0
I0
tp993
g2
(g3
tp994
Rp995
S'goal'
p996
F59.71847153813859
ss(I0
I2
I3
I2
I1
I0
I0
tp997
g2
(g3
tp998
Rp999
g62
F39.33550206218765
sg65
F-131.28338538587084
sg64
F2.4861772000117606
sg44
F3.3534067571237953
ss(I3
I3
I1
I1
I1
I0
I0
tp1000
g2
(g3
tp1001
Rp1002
S'intercepte'
p1003
F0.0
sg62
F-78.16026904177485
sS'goal'
p1004
F-55.45957409040818
sg64
F-247.35041264141665
sg65
F-80.06219720303658
ss(I1
I3
I2
I2
I0
I0
I0
tp1005
g2
(g3
tp1006
Rp1007
g62
F-32.39898724559971
sg65
F-0.09615542966884118
sg64
F-236.11035729720552
sg44
F-97.28887107009889
ss(I2
I1
I3
I0
I3
I0
I0
tp1008
g2
(g3
tp1009
Rp1010
S'evite'
p1011
F0.0
ss(I1
I3
I0
I2
I0
I0
I0
tp1012
g2
(g3
tp1013
Rp1014
g62
F-18.68148827955968
sS'goal'
p1015
F-2.3542735518138427
sg64
F1.2094517802040552
sg65
F5.384679716552627
ss(I3
I3
I1
I3
I2
I0
I0
tp1016
g2
(g3
tp1017
Rp1018
g48
F-203.02639786910606
sS'goal'
p1019
F-142.27479578810016
sg50
F-98.85246023193824
sg51
F-101.13600691592231
ss(I3
I3
I0
I2
I2
I0
I0
tp1020
g2
(g3
tp1021
Rp1022
g62
F-86.40000967555311
sS'goal'
p1023
F-199.98638870532315
sg64
F-83.18838422699069
sg65
F-82.9527098053437
ss(I2
I3
I0
I3
I2
I0
I0
tp1024
g2
(g3
tp1025
Rp1026
g62
F4.199449214150554
sS'goal'
p1027
F-100.00012081563094
sg64
F-14.763750851523126
sg65
F-17.21168794108138
ss(I1
I3
I2
I3
I2
I0
I0
tp1028
g2
(g3
tp1029
Rp1030
S'attaquant'
p1031
F-65.35635912633714
sS'fonce_Strat'
p1032
F-98.1420875561658
sS'evite'
p1033
F-26.588291872696594
sg44
F-98.40450306143919
ss(I0
I3
I0
I1
I1
I0
I0
tp1034
g2
(g3
tp1035
Rp1036
S'intercepte'
p1037
F0.0
sg62
F18.20598088688064
sS'goal'
p1038
F-265.61634003185713
sg64
F-35.142950175316386
sS'fonce_Strat'
p1039
F-148.8925364309956
ss(I1
I1
I3
I1
I1
I0
I0
tp1040
g2
(g3
tp1041
Rp1042
S'intercepte'
p1043
F94.50244246047563
sS'attaquant'
p1044
F-91.90609266939045
sS'fonce_Strat'
p1045
F-67.58564443195289
sS'evite'
p1046
F-179.61518086948413
sg10
F-0.04218060558362466
ss(I2
I3
I3
I0
I3
I0
I0
tp1047
g2
(g3
tp1048
Rp1049
g325
F6.422351527859637
sg326
F3.131029811842726
sg327
F7.275703827839846
sg328
F-88.43316391229249
ss(I3
I3
I3
I2
I2
I0
I0
tp1050
g2
(g3
tp1051
Rp1052
g62
F5.11560478692845e-08
sg65
F-88.60776022116086
sg64
F-35.99999978589502
sg44
F-19.999999924993137
ss(I1
I2
I3
I0
I2
I0
I0
tp1053
g2
(g3
tp1054
Rp1055
S'attaquant'
p1056
F-46.706894022555886
sS'fonce_Strat'
p1057
F-51.25749805464859
sS'evite'
p1058
F-1.4970251772665623e-08
sg10
F-51.044226276921236
ss(I1
I3
I3
I1
I2
I0
I0
tp1059
g2
(g3
tp1060
Rp1061
S'attaquant'
p1062
F-101.37498175759734
sS'fonce_Strat'
p1063
F-9.046256971664165e-07
sS'evite'
p1064
F-134.9108682213655
sS'goal'
p1065
F-166.5782268319415
ss(I2
I3
I1
I1
I2
I0
I0
tp1066
g2
(g3
tp1067
Rp1068
S'intercepte'
p1069
F-8.589934591497313
sS'attaquant'
p1070
F-110.08932702238889
sS'goal'
p1071
F-254.36913257421742
sS'evite'
p1072
F-99.99999860777095
sS'fonce_Strat'
p1073
F-9.526814547005213e-14
ss(I3
I3
I2
I1
I1
I0
I0
tp1074
g2
(g3
tp1075
Rp1076
S'intercepte'
p1077
F0.0
sg62
F-146.66932464427038
sg65
F-78.63547109946703
sg64
F-0.007238480107481517
sg44
F-71.3252259216487
ss(I0
I2
I3
I2
I2
I0
I0
tp1078
g2
(g3
tp1079
Rp1080
g62
F3.9191342591442053
sg65
F4.016187524152518
sg64
F-37.43415656485038
sg44
F-115.82543040335119
ss(I2
I1
I3
I0
I2
I0
I0
tp1081
g2
(g3
tp1082
Rp1083
S'intercepte'
p1084
F98.1985601490518
sS'attaquant'
p1085
F-170.44026163200002
sS'fonce_Strat'
p1086
F-1.5955593594929178
sS'evite'
p1087
F-73.78542900686506
sg10
F-86.57433926623604
ss(I2
I3
I0
I2
I2
I0
I0
tp1088
g2
(g3
tp1089
Rp1090
g62
F2.9971159530437843
sS'goal'
p1091
F-72.00000017673348
sg64
F1.7648396193030487
sg65
F-94.03270031298771
ss(I1
I3
I3
I0
I0
I0
I0
tp1092
g2
(g3
tp1093
Rp1094
S'intercepte'
p1095
F21.206068634859463
sS'attaquant'
p1096
F-158.71579277534394
sS'fonce_Strat'
p1097
F-93.94088546376987
sS'evite'
p1098
F-0.002658455991569833
sg10
F-131.3210724725534
ss(I3
I3
I0
I2
I1
I0
I0
tp1099
g2
(g3
tp1100
Rp1101
g62
F-274.3365927945883
sS'goal'
p1102
F-99.99961286877836
sg64
F-66.60948915070533
sg65
F-180.93681495606936
ss(I3
I3
I2
I2
I1
I0
I0
tp1103
g2
(g3
tp1104
Rp1105
g62
F-93.05358423932856
sg65
F8.30259480885688e-05
sg64
F3.2605772513928556e-05
sg44
F3.252469806242144e-07
ss(I2
I3
I0
I3
I1
I0
I0
tp1106
g2
(g3
tp1107
Rp1108
g48
F-85.96983237684915
sS'goal'
p1109
F-101.44115115002711
sg50
F-19.817612965345923
sg51
F-47.07255236373031
ss(I2
I3
I2
I3
I1
I0
I0
tp1110
g2
(g3
tp1111
Rp1112
S'intercepte'
p1113
F71.40270896728461
sg62
F-152.3955085319923
sS'goal'
p1114
F-223.18599551553856
sg64
F-0.33442680501406946
sg65
F-284.5516938202493
ss(I2
I3
I1
I2
I2
I0
I0
tp1115
g2
(g3
tp1116
Rp1117
g62
F-89.26930007055373
sS'goal'
p1118
F-85.1796605990105
sg64
F-73.25747592162529
sg65
F-178.95413496364299
ss(I3
I3
I0
I3
I3
I0
I0
tp1119
g2
(g3
tp1120
Rp1121
S'goal'
p1122
F-98.85811935328984
ss(I2
I3
I3
I0
I2
I0
I0
tp1123
g2
(g3
tp1124
Rp1125
S'intercepte'
p1126
F59.040727990120224
sS'attaquant'
p1127
F-1.4592932963528385e-88
sS'fonce_Strat'
p1128
F-117.13887284440334
sS'evite'
p1129
F-130.92949217677483
sS'goal'
p1130
F-223.6221479050214
ss(I3
I3
I3
I2
I3
I0
I0
tp1131
g2
(g3
tp1132
Rp1133
g62
F4.421098576048621
sg65
F5.941677514662228
sg64
F0.14866059605029464
sg44
F1.1330255709876593
ss(I1
I2
I3
I0
I1
I0
I0
tp1134
g2
(g3
tp1135
Rp1136
S'intercepte'
p1137
F59.13173083018355
sS'attaquant'
p1138
F-99.5215160371191
sS'fonce_Strat'
p1139
F-117.18702112877202
sS'evite'
p1140
F-113.40475868165882
sg10
F-4.341061649168383e-65
ss(I2
I3
I2
I2
I3
I0
I0
tp1141
g2
(g3
tp1142
Rp1143
g62
F-85.36256947986598
sg65
F3.9981971410979713
sg64
F6.776631452463823
sg44
F8.634288328432838
ss(I2
I3
I1
I1
I3
I0
I0
tp1144
g2
(g3
tp1145
Rp1146
S'attaquant'
p1147
F-194.37050046578688
sS'goal'
p1148
F-0.36893488147419107
sg64
F-197.11704572181264
sg65
F-188.9043730370759
ss(I3
I3
I2
I0
I3
I0
I0
tp1149
g2
(g3
tp1150
Rp1151
S'attaquant'
p1152
F-37.44171020270932
sS'fonce_Strat'
p1153
F-7.150148854792085e-07
sS'evite'
p1154
F-59.601953488896
sg44
F-82.39921236774413
ss(I3
I2
I3
I0
I2
I0
I0
tp1155
g2
(g3
tp1156
Rp1157
S'attaquant'
p1158
F0.0
ss(I3
I3
I1
I1
I3
I0
I0
tp1159
g2
(g3
tp1160
Rp1161
S'attaquant'
p1162
F-118.08
sS'goal'
p1163
F-67.232
sS'evite'
p1164
F-0.8861622753230973
sg65
F-197.10013091572543
ss(I1
I3
I0
I2
I2
I0
I0
tp1165
g2
(g3
tp1166
Rp1167
g62
F3.0537210941777078
sS'goal'
p1168
F-100.00272050854099
sg64
F5.925704084756849
sg65
F5.664141007868968
ss(I1
I3
I3
I0
I1
I0
I0
tp1169
g2
(g3
tp1170
Rp1171
S'intercepte'
p1172
F59.04001203325571
sS'attaquant'
p1173
F-99.99999999999997
sS'fonce_Strat'
p1174
F-3.5786284291548394e-101
sS'evite'
p1175
F-168.32030912329589
sS'goal'
p1176
F-232.0490223116762
ss(I3
I3
I0
I2
I0
I0
I0
tp1177
g2
(g3
tp1178
Rp1179
S'goal'
p1180
F-60.609252666580595
ss(I3
I3
I2
I2
I0
I0
I0
tp1181
g2
(g3
tp1182
Rp1183
g62
F-53.623314157923645
sg65
F1.6211734947039278
sg64
F2.6848516167067134
sg44
F1.5704656237958967
ss(I2
I3
I0
I3
I0
I0
I0
tp1184
g2
(g3
tp1185
Rp1186
g62
F1.7805343737641883
sS'goal'
p1187
F-86.25126398562614
sg64
F2.5469890202504297
sg65
F-26.95709825661157
ss(I2
I3
I2
I3
I0
I0
I0
tp1188
g2
(g3
tp1189
Rp1190
g62
F-88.77610212678832
sg65
F-121.15146914658708
sg64
F-15.860023733357988
sg44
F-22.452680857773863
ss(I3
I3
I0
I3
I2
I0
I0
tp1191
g2
(g3
tp1192
Rp1193
g48
F-244.77503087751316
sS'goal'
p1194
F-197.08621502975063
sg50
F-87.73903585559026
sg51
F-135.79746647761175
ss(I2
I3
I3
I0
I1
I0
I0
tp1195
g2
(g3
tp1196
Rp1197
S'intercepte'
p1198
F49.344730416147584
sS'attaquant'
p1199
F-72.31066404798733
sS'fonce_Strat'
p1200
F-3.380751875923557e-42
sS'evite'
p1201
F-211.6288549605577
sS'goal'
p1202
F-106.88942374540636
ss(I0
I3
I0
I1
I0
I0
I0
tp1203
g2
(g3
tp1204
Rp1205
S'intercepte'
p1206
F0.0
sg325
F6.4994841452034695
sS'goal'
p1207
F18.370816000000005
sg327
F1.5488415129687427
sS'fonce_Strat'
p1208
F14.7456
ss(I1
I2
I3
I0
I0
I0
I0
tp1209
g2
(g3
tp1210
Rp1211
S'intercepte'
p1212
F37.808254566399995
sS'attaquant'
p1213
F-66.45688998627092
sS'fonce_Strat'
p1214
F-77.7004397001134
sS'evite'
p1215
F-0.003003630844570767
sg10
F-119.60594511401021
ss(I3
I2
I3
I2
I1
I0
I0
tp1216
g2
(g3
tp1217
Rp1218
g62
F1.0216239712848527
sg65
F3.818751612091348
sg64
F6.196352060152759
sg44
F2.586221427505317
ss(I1
I3
I1
I1
I3
I0
I0
tp1219
g2
(g3
tp1220
Rp1221
g62
F2.1723622982612247
sg65
F2.1735046405235865
sg64
F-96.1078035530198
sg44
F1.7468413309541557
ss(I3
I3
I1
I1
I2
I0
I0
tp1222
g2
(g3
tp1223
Rp1224
S'intercepte'
p1225
F-99.99999325989548
sg62
F-3.1352650743882995
sS'goal'
p1226
F-159.77464941383846
sS'evite'
p1227
F-67.23624052541412
sg65
F-157.57014338261516
ss.