(dp0
(I2
I3
I1
I3
I0
tp1
ccollections
defaultdict
p2
(c__builtin__
float
p3
tp4
Rp5
S'attaquant'
p6
F-132.02958820257544
sS'goal'
p7
F-99.78584322469
sS'evite'
p8
F70.73753914904233
sS'fonce_Strat'
p9
F144.6240574322582
ss(I1
I2
I3
I0
I0
tp10
g2
(g3
tp11
Rp12
S'attaquant'
p13
F-192.50268141453293
sS'goal'
p14
F-99.82553210668468
sS'evite'
p15
F2.0155177272286893e-38
sS'fonce_Strat'
p16
F6.152780290123339e-14
ss(I0
I2
I3
I0
I0
tp17
g2
(g3
tp18
Rp19
S'attaquant'
p20
F-198.63961186565388
sS'fonce_Strat'
p21
F-8.405546470661452
sS'evite'
p22
F1.0632104718563473e-71
sS'goal'
p23
F-195.37863457516605
ss(I2
I3
I3
I1
I0
tp24
g2
(g3
tp25
Rp26
S'attaquant'
p27
F-0.00850696202302952
sS'fonce_Strat'
p28
F-43.50326840923756
sS'evite'
p29
F-63.80192959371434
sS'goal'
p30
F-49.940137200235995
ss(I3
I2
I3
I1
I0
tp31
g2
(g3
tp32
Rp33
S'attaquant'
p34
F0.7380438665782536
sS'fonce_Strat'
p35
F55.48815905301948
sS'evite'
p36
F46.952583128886225
sS'goal'
p37
F17.272050585333925
ss(I2
I1
I3
I0
I0
tp38
g2
(g3
tp39
Rp40
S'attaquant'
p41
F-61.47798420717171
sS'fonce_Strat'
p42
F-1.622141469082171
sS'evite'
p43
F0.00016098865656796556
sg23
F-186.2560568876342
ss(I1
I3
I0
I2
I0
tp44
g2
(g3
tp45
Rp46
S'attaquant'
p47
F-14.871445136593389
sS'goal'
p48
F-101.32698003863541
sS'evite'
p49
F-75.76569744652008
sS'fonce_Strat'
p50
F-117.42952177624562
ss(I3
I1
I3
I1
I0
tp51
g2
(g3
tp52
Rp53
S'attaquant'
p54
F21.340683899646496
sS'fonce_Strat'
p55
F1.608297920884538
sS'evite'
p56
F89.46288772082727
sg37
F0.7680731238626824
ss(I2
I2
I3
I2
I0
tp57
g2
(g3
tp58
Rp59
S'attaquant'
p60
F72.0
sS'goal'
p61
F40.00001961594619
sS'evite'
p62
F312.81281413533435
sS'fonce_Strat'
p63
F78.39300989045807
ss(I1
I3
I3
I3
I0
tp64
g2
(g3
tp65
Rp66
S'attaquant'
p67
F0.0011417981541647667
sS'fonce_Strat'
p68
F496.31830179119834
sS'evite'
p69
F249.88066906112002
sg23
F1.0664414738219559e-93
ss(I0
I1
I3
I1
I0
tp70
g2
(g3
tp71
Rp72
S'attaquant'
p73
F355.18669396935576
sS'fonce_Strat'
p74
F-65.15924563108535
sS'evite'
p75
F147.62615033105985
sg23
F-191.03367974047285
ss(I3
I3
I3
I2
I0
tp76
g2
(g3
tp77
Rp78
g27
F-395.34166710954935
sS'fonce_Strat'
p79
F-135.197114070017
sS'evite'
p80
F-26.843023139780048
sg30
F260.6815061306999
ss(I1
I1
I3
I0
I0
tp81
g2
(g3
tp82
Rp83
S'attaquant'
p84
F-105.37274835903413
sS'fonce_Strat'
p85
F1.1725361079323207
sS'evite'
p86
F3.017199169028799e-11
sg23
F-0.3682659380320493
ss(I0
I3
I0
I2
I0
tp87
g2
(g3
tp88
Rp89
S'attaquant'
p90
F7.8838151746134155
sS'goal'
p91
F-199.95263237276927
sS'evite'
p92
F1.6916884219375248
sS'fonce_Strat'
p93
F3.01532596518306
ss(I0
I3
I3
I0
I0
tp94
g2
(g3
tp95
Rp96
S'attaquant'
p97
F-101.25028047247312
sS'goal'
p98
F-137.89622187232433
sS'evite'
p99
F1.866976540911471e-104
sS'fonce_Strat'
p100
F-2.9971125674081724
ss(I3
I3
I2
I1
I0
tp101
g2
(g3
tp102
Rp103
g27
F-23.88735819199731
sS'goal'
p104
F-146.07885876056582
sg80
F-383.26189411033334
sg79
F-137.64916689379072
ss(I0
I3
I2
I3
I0
tp105
g2
(g3
tp106
Rp107
g34
F96.49361695368275
sS'fonce_Strat'
p108
F36.000000000001634
sg36
F-102.39721238583846
sg37
F-35.999999999874106
ss(I0
I3
I0
I3
I0
tp109
g2
(g3
tp110
Rp111
S'attaquant'
p112
F0.015857735564582216
sS'goal'
p113
F-64.061832855552
sS'evite'
p114
F-17.977810558942608
sS'fonce_Strat'
p115
F3.3573290702151817
ss(I2
I3
I1
I0
I0
tp116
g2
(g3
tp117
Rp118
S'attaquant'
p119
F1.8014233959026256
sS'goal'
p120
F-51.877562984782806
sS'evite'
p121
F-99.99999999970643
sS'fonce_Strat'
p122
F-12.875341416174928
ss(I1
I2
I3
I1
I0
tp123
g2
(g3
tp124
Rp125
S'attaquant'
p126
F-32.64769212583894
sS'fonce_Strat'
p127
F496.2224725864843
sS'evite'
p128
F173.25306350110594
sS'goal'
p129
F260.5238660892814
ss(I0
I3
I0
I1
I0
tp130
g2
(g3
tp131
Rp132
g112
F-8.619250103763497
sS'goal'
p133
F-188.24424616901166
sg114
F-244.41400222285878
sg115
F-52.32213676138956
ss(I2
I3
I0
I3
I0
tp134
g2
(g3
tp135
Rp136
g34
F-187.87474227226005
sS'goal'
p137
F-77.84670516908594
sg36
F-494.0156723725574
sg108
F-63.24971424546133
ss(I2
I1
I3
I1
I0
tp138
g2
(g3
tp139
Rp140
S'attaquant'
p141
F7.254655013269958e-13
sS'fonce_Strat'
p142
F171.03903825777914
sS'evite'
p143
F239.75241372716133
sg23
F-6.9289813206992275
ss(I1
I0
I3
I0
I0
tp144
g2
(g3
tp145
Rp146
S'attaquant'
p147
F68.82713312493817
sS'fonce_Strat'
p148
F1.1563463089588417
sS'evite'
p149
F-25.092177886925278
sS'goal'
p150
F41.354801223419614
ss(I1
I3
I2
I1
I0
tp151
g2
(g3
tp152
Rp153
g27
F-318.8413335966224
sS'goal'
p154
F-159.619423088222
sg80
F-51.19999998394583
sg79
F-281.95851012288745
ss(I1
I3
I2
I0
I0
tp155
g2
(g3
tp156
Rp157
S'attaquant'
p158
F-67.28327107518687
sS'goal'
p159
F-269.1258104410794
sS'evite'
p160
F-185.65588999631453
sS'fonce_Strat'
p161
F1.4411387167221004
ss(I3
I1
I3
I0
I0
tp162
g2
(g3
tp163
Rp164
S'attaquant'
p165
F93.20923675993133
sS'fonce_Strat'
p166
F44.043739736062726
sS'evite'
p167
F106.5574136667149
sS'goal'
p168
F1.748350760583633
ss(I2
I2
I3
I1
I0
tp169
g2
(g3
tp170
Rp171
S'attaquant'
p172
F-19.99999919828048
sS'goal'
p173
F-54.117746390426625
sS'evite'
p174
F496.26988113922374
sS'fonce_Strat'
p175
F219.83315336917852
ss(I1
I3
I3
I2
I0
tp176
g2
(g3
tp177
Rp178
S'attaquant'
p179
F6.134077910651426
sS'goal'
p180
F-194.03020521283293
sS'evite'
p181
F-26.34079280928316
sS'fonce_Strat'
p182
F7.684842471680352
ss(I3
I2
I3
I2
I0
tp183
g2
(g3
tp184
Rp185
g34
F10.710939188086229
sS'fonce_Strat'
p186
F4.099854483397351
sg36
F15.948208216225561
sg37
F12.457242732070133
ss(I0
I1
I3
I2
I0
tp187
g2
(g3
tp188
Rp189
g34
F5.378333850863181
sg108
F56.67111254168442
sg36
F131.56004776105172
sg37
F1.9716557298253947
ss(I0
I3
I1
I3
I0
tp190
g2
(g3
tp191
Rp192
g34
F-19.99138656672316
sg108
F-19.167912020438482
sg36
F-199.9789008606295
sg37
F9.188165441948215e-11
ss(I0
I3
I3
I1
I0
tp193
g2
(g3
tp194
Rp195
S'attaquant'
p196
F-145.70790674829934
sS'goal'
p197
F-200.96206333073255
sS'evite'
p198
F10.578279274491361
sS'fonce_Strat'
p199
F-99.91926879595292
ss(I3
I3
I0
I0
I0
tp200
g2
(g3
tp201
Rp202
S'goal'
p203
F-30.331082565320532
ss(I3
I3
I2
I2
I0
tp204
g2
(g3
tp205
Rp206
S'attaquant'
p207
F-152.6971291824484
sS'fonce_Strat'
p208
F-331.8414402032974
sS'evite'
p209
F-79.0446237079987
sg150
F2.2602855912255183e-07
ss(I1
I3
I0
I3
I0
tp210
g2
(g3
tp211
Rp212
g112
F-88.01776843655053
sS'goal'
p213
F-199.9999999939433
sg114
F-44.139131251706786
sg115
F-107.84135438079065
ss(I1
I3
I2
I2
I0
tp214
g2
(g3
tp215
Rp216
g27
F-309.6343346441531
sg79
F-108.7918851229739
sg80
F-137.72522071948757
sg30
F0.5969558046444862
ss(I0
I3
I2
I2
I0
tp217
g2
(g3
tp218
Rp219
g34
F-40.60704175531153
sg108
F-6.449929612435173
sg36
F-59.187561888865886
sg37
F-1.5603173574773042
ss(I3
I3
I1
I3
I0
tp220
g2
(g3
tp221
Rp222
S'attaquant'
p223
F-290.09053790315136
sS'goal'
p224
F-99.98338465005268
sS'evite'
p225
F-886.1976418130379
sS'fonce_Strat'
p226
F1.4935753646492043
ss(I0
I0
I3
I1
I0
tp227
g2
(g3
tp228
Rp229
S'attaquant'
p230
F5.061489498852181
sS'fonce_Strat'
p231
F9.295351768970685
sS'evite'
p232
F3.310820195939584
sS'goal'
p233
F1.7860799007837926
ss(I1
I3
I1
I3
I0
tp234
g2
(g3
tp235
Rp236
g34
F-131.51545935243627
sg108
F-116.03200000000001
sg36
F-202.61022719999855
sg37
F-35.22212015374337
ss(I2
I3
I0
I1
I0
tp237
g2
(g3
tp238
Rp239
g34
F-236.15156322089956
sS'goal'
p240
F-0.027117280259884274
sg36
F-170.15514773754043
sg108
F-100.3278645199695
ss(I2
I3
I3
I3
I0
tp241
g2
(g3
tp242
Rp243
S'attaquant'
p244
F1.1356853899134054e-12
sS'fonce_Strat'
p245
F6.678082181587643e-50
sS'evite'
p246
F99.65148935348725
sg23
F2.905504325388908e-80
ss(I1
I2
I3
I2
I0
tp247
g2
(g3
tp248
Rp249
S'attaquant'
p250
F-0.2934484488058799
sS'goal'
p251
F7.238285747309262e-05
sS'evite'
p252
F40.0
sS'fonce_Strat'
p253
F499.52374424831993
ss(I0
I2
I3
I2
I0
tp254
g2
(g3
tp255
Rp256
S'attaquant'
p257
F1.8184290630963509
sS'goal'
p258
F6.8717561149205055
sS'evite'
p259
F-80.00000003924409
sS'fonce_Strat'
p260
F499.6212570361675
ss(I2
I3
I2
I0
I0
tp261
g2
(g3
tp262
Rp263
S'attaquant'
p264
F-116.9448470404895
sS'goal'
p265
F-159.9173153727913
sS'evite'
p266
F-42.21439999999999
sS'fonce_Strat'
p267
F0.9205531440695953
ss(I0
I3
I0
I0
I0
tp268
g2
(g3
tp269
Rp270
S'attaquant'
p271
F-173.81086918803163
sS'goal'
p272
F-350.35430524347896
sS'evite'
p273
F0.0009056825633409208
sS'fonce_Strat'
p274
F-46.34877013916376
ss(I3
I0
I3
I0
I0
tp275
g2
(g3
tp276
Rp277
S'attaquant'
p278
F37.89452354869029
sS'fonce_Strat'
p279
F4.732867565519815
sS'evite'
p280
F191.3181205113545
sS'goal'
p281
F3.9967616280064995
ss(I1
I0
I3
I1
I0
tp282
g2
(g3
tp283
Rp284
S'attaquant'
p285
F-29.056327243924585
sS'fonce_Strat'
p286
F58.33853488332801
sS'evite'
p287
F241.29024778700645
sS'goal'
p288
F21.77247024202154
ss(I3
I3
I2
I0
I0
tp289
g2
(g3
tp290
Rp291
g278
F2.771408600230106
sg279
F27.199355806807702
sg280
F5.706338933137652
sg281
F6.477578519981486
ss(I2
I2
I3
I0
I0
tp292
g2
(g3
tp293
Rp294
S'attaquant'
p295
F-101.75590684934136
sS'goal'
p296
F-24.378516008188548
sS'evite'
p297
F0.005654787169389304
sS'fonce_Strat'
p298
F-57.34266663990238
ss(I1
I3
I3
I1
I0
tp299
g2
(g3
tp300
Rp301
S'attaquant'
p302
F10.613052803208582
sS'goal'
p303
F-130.98978969357393
sS'evite'
p304
F-52.85611096175338
sS'fonce_Strat'
p305
F-99.99999999999997
ss(I3
I2
I3
I3
I0
tp306
g2
(g3
tp307
Rp308
g34
F5.871265655202492
sg108
F132.9500054912865
sg36
F9.9285873906192
sg37
F22.287617995378568
ss(I2
I1
I3
I2
I0
tp309
g2
(g3
tp310
Rp311
g34
F40.142364813664265
sS'fonce_Strat'
p312
F56.8290846451925
sg36
F1.8623484134544377
sg37
F138.959746545894
ss(I1
I3
I0
I0
I0
tp313
g2
(g3
tp314
Rp315
S'attaquant'
p316
F-23.97856676786255
sS'goal'
p317
F-115.36344555771323
sS'evite'
p318
F-2.473898741871876
sS'fonce_Strat'
p319
F-116.14826983227373
ss(I2
I3
I2
I1
I0
tp320
g2
(g3
tp321
Rp322
g27
F-200.98485426703303
sS'goal'
p323
F-299.9492817139878
sg80
F-158.54821429527516
sg79
F-0.7131105916280516
ss(I2
I3
I3
I2
I0
tp324
g2
(g3
tp325
Rp326
S'attaquant'
p327
F6.365208575304753e-08
sS'goal'
p328
F99.84684574760702
sS'evite'
p329
F4.617685699977279e-07
sS'fonce_Strat'
p330
F-277.66886744942565
ss(I1
I1
I3
I2
I0
tp331
g2
(g3
tp332
Rp333
g34
F2.4175229153585094
sS'fonce_Strat'
p334
F78.24044134776813
sg36
F14.008421953433063
sg37
F-42.88125219382202
ss(I3
I3
I0
I1
I0
tp335
g2
(g3
tp336
Rp337
g34
F-73.00041540668629
sS'goal'
p338
F-199.99998921610197
sg36
F-53.70160108781688
sg108
F-67.09369897472837
ss(I0
I3
I2
I1
I0
tp339
g2
(g3
tp340
Rp341
g27
F-136.60267107331762
sg79
F-203.47150982218204
sg80
F-95.94172397742547
sg30
F-98.50658503087098
ss(I3
I3
I1
I2
I0
tp342
g2
(g3
tp343
Rp344
g47
F-118.8470784899998
sS'goal'
p345
F-372.0700289698706
sg49
F0.0019601284811895134
sg50
F-52.72232790600443
ss(I2
I0
I3
I1
I0
tp346
g2
(g3
tp347
Rp348
S'attaquant'
p349
F60.879708284900445
sS'fonce_Strat'
p350
F22.975444728069313
sS'evite'
p351
F63.08105009992149
sg150
F137.20470319601267
ss(I0
I0
I3
I0
I0
tp352
g2
(g3
tp353
Rp354
S'attaquant'
p355
F6.442480643591992
sS'fonce_Strat'
p356
F1.7169973579350013
sS'evite'
p357
F0.1347474862032619
sg37
F1.2508118775888744
ss(I0
I3
I3
I3
I0
tp358
g2
(g3
tp359
Rp360
S'attaquant'
p361
F-41.43597978030428
sS'fonce_Strat'
p362
F287.29064204743474
sS'evite'
p363
F499.995644014452
sg23
F9.839595781317129e-39
ss(I0
I3
I1
I0
I0
tp364
g2
(g3
tp365
Rp366
S'attaquant'
p367
F-89.14969453902452
sS'goal'
p368
F-196.946775889979
sS'evite'
p369
F-51.19999997453705
sS'fonce_Strat'
p370
F8.526552061968598
ss(I2
I3
I3
I0
I0
tp371
g2
(g3
tp372
Rp373
S'attaquant'
p374
F-99.99999999999997
sS'goal'
p375
F-255.69746920390935
sS'evite'
p376
F8.263197485326136e-12
sS'fonce_Strat'
p377
F-9.183444595414382
ss(I0
I3
I3
I2
I0
tp378
g2
(g3
tp379
Rp380
S'attaquant'
p381
F-2.673102590909798
sS'goal'
p382
F0.007294214625971923
sS'evite'
p383
F158.08274028382186
sS'fonce_Strat'
p384
F492.33303619859737
ss(I2
I3
I0
I2
I0
tp385
g2
(g3
tp386
Rp387
g47
F-278.4390836247433
sS'goal'
p388
F-2.507015645799075
sg49
F-115.38372299248863
sg50
F-147.47285124805916
ss(I1
I3
I1
I2
I0
tp389
g2
(g3
tp390
Rp391
g34
F-36.32437661707607
sS'goal'
p392
F-232.21979432764232
sg36
F-138.97643448475426
sg108
F-225.63416734050315
ss(I2
I3
I2
I3
I0
tp393
g2
(g3
tp394
Rp395
S'attaquant'
p396
F7.870650096249304
sS'goal'
p397
F-179.5209577043746
sS'evite'
p398
F17.46262605446588
sS'fonce_Strat'
p399
F-196.31861255824182
ss(I3
I0
I3
I1
I0
tp400
g2
(g3
tp401
Rp402
S'evite'
p403
F40.0
ss(I2
I3
I1
I2
I0
tp404
g2
(g3
tp405
Rp406
g27
F-91.8339555890407
sS'goal'
p407
F-62.59515712578101
sg80
F-523.6248399430687
sg79
F-86.68949433814907
ss(I0
I2
I3
I1
I0
tp408
g2
(g3
tp409
Rp410
S'attaquant'
p411
F-198.13166681607296
sS'fonce_Strat'
p412
F13.282718666776407
sS'evite'
p413
F-158.3048186467438
sg23
F-99.05775132643232
ss(I2
I3
I2
I2
I0
tp414
g2
(g3
tp415
Rp416
g27
F-313.1539842509655
sg79
F5.355839644665485
sg80
F-37.18527016918527
sg30
F-42.515312708235626
ss(I1
I3
I3
I0
I0
tp417
g2
(g3
tp418
Rp419
S'attaquant'
p420
F-61.17798657385918
sS'goal'
p421
F-99.99999999999997
sS'evite'
p422
F-0.2009078399748135
sS'fonce_Strat'
p423
F5.445398074731503e-72
ss(I3
I3
I1
I0
I0
tp424
g2
(g3
tp425
Rp426
S'goal'
p427
F-83.61904185999362
ss(I3
I2
I3
I0
I0
tp428
g2
(g3
tp429
Rp430
S'fonce_Strat'
p431
F0.0
ss(I1
I3
I2
I3
I0
tp432
g2
(g3
tp433
Rp434
S'attaquant'
p435
F144.6279023972335
sS'fonce_Strat'
p436
F74.90500990698362
sS'evite'
p437
F-146.94263515349087
sS'goal'
p438
F-169.9089719224415
ss(I2
I2
I3
I3
I0
tp439
g2
(g3
tp440
Rp441
g34
F189.31885201097023
sg108
F-34.96552230712835
sg36
F-32.913479618656496
sg37
F30.615715071822205
ss(I3
I3
I2
I3
I0
tp442
g2
(g3
tp443
Rp444
g47
F9.903667397006894
sg50
F3.264277420939117e-83
sg49
F59.04014753640102
sS'goal'
p445
F1.181150271616262e-10
ss(I1
I3
I0
I1
I0
tp446
g2
(g3
tp447
Rp448
g34
F-241.92102120078428
sS'goal'
p449
F-105.49441466561817
sg36
F-0.6593514399180241
sg108
F-98.81451060714676
ss(I0
I1
I3
I0
I0
tp450
g2
(g3
tp451
Rp452
S'attaquant'
p453
F-27.148721744455884
sS'goal'
p454
F-71.99968110956813
sS'evite'
p455
F6.214084969143999e-08
sS'fonce_Strat'
p456
F2.760099668615595e-09
ss(I0
I3
I2
I0
I0
tp457
g2
(g3
tp458
Rp459
S'attaquant'
p460
F-72.51802933203865
sS'fonce_Strat'
p461
F55.951680363316406
sS'evite'
p462
F-166.9136523264
sS'goal'
p463
F-207.33690079702984
ss(I3
I3
I1
I1
I0
tp464
g2
(g3
tp465
Rp466
g34
F-197.049992481097
sS'goal'
p467
F-174.50602401095009
sg36
F-99.23334524276758
sg108
F-372.56438225760604
ss(I2
I0
I3
I0
I0
tp468
g2
(g3
tp469
Rp470
S'attaquant'
p471
F217.89056322318726
sS'fonce_Strat'
p472
F194.74084737184967
sS'evite'
p473
F6.755394013768634
sg150
F59.51617212986199
ss(I1
I1
I3
I1
I0
tp474
g2
(g3
tp475
Rp476
S'attaquant'
p477
F141.62307387193283
sS'goal'
p478
F488.9457636473673
sS'evite'
p479
F-19.22823150686116
sS'fonce_Strat'
p480
F184.7706846332559
ss(I2
I3
I1
I1
I0
tp481
g2
(g3
tp482
Rp483
g34
F-278.26714638515125
sS'goal'
p484
F-298.5885475614356
sg36
F-0.15474029635184322
sg108
F-188.79651513807858
ss(I0
I3
I1
I1
I0
tp485
g2
(g3
tp486
Rp487
g34
F-148.1269635458841
sS'goal'
p488
F-34.362933483793086
sg36
F-99.99371667296097
sg108
F-3.155366346408274
ss(I3
I3
I0
I2
I0
tp489
g2
(g3
tp490
Rp491
g47
F1.4882442739765287
sS'goal'
p492
F-159.99999999999994
sg49
F0.18165059400592326
sg50
F0.07510344113696107
ss(I3
I3
I3
I3
I0
tp493
g2
(g3
tp494
Rp495
g47
F5.2121471886687714e-80
sg50
F-193.72080611881506
sg49
F105.73367046800728
sg445
F2.6613470808377115e-85
ss(I1
I3
I1
I0
I0
tp496
g2
(g3
tp497
Rp498
S'attaquant'
p499
F-43.78137106985419
sS'goal'
p500
F-161.41010401505056
sS'evite'
p501
F-99.99999999999997
sS'fonce_Strat'
p502
F10.73650480147666
ss(I0
I3
I1
I2
I0
tp503
g2
(g3
tp504
Rp505
g47
F-108.98247485779743
sS'goal'
p506
F-5.95807901026311
sg49
F-277.61104981087703
sg50
F-177.37111711101892
ss(I3
I3
I0
I3
I0
tp507
g2
(g3
tp508
Rp509
g34
F-126.67949773389424
sS'goal'
p510
F-15.172135874866186
sg36
F-999.9490986834154
sg108
F-99.94929397599087
ss(I1
I3
I1
I1
I0
tp511
g2
(g3
tp512
Rp513
g34
F-83.33609056372956
sS'goal'
p514
F-134.76470467573805
sg36
F-184.32707116328586
sg108
F-118.48046871141928
ss(I2
I3
I0
I0
I0
tp515
g2
(g3
tp516
Rp517
S'attaquant'
p518
F88.95165903472707
sS'goal'
p519
F-186.14330164785792
sS'evite'
p520
F-73.69252674688057
sS'fonce_Strat'
p521
F-55.41006566697827
ss(I3
I3
I3
I1
I0
tp522
g2
(g3
tp523
Rp524
g27
F-8.347653596567458
sg79
F-35.769688313857046
sg80
F-177.41553458571744
sg30
F-374.90019040073446
ss.