(dp0
(I0
I2
I3
I2
I0
tp1
ccollections
defaultdict
p2
(c__builtin__
float
p3
tp4
Rp5
S'attaquant'
p6
F599.9992692491758
sS'fonce_Strat'
p7
F199.799813322019
sS'evite'
p8
F896.3532597660387
sS'goal'
p9
F1.846001963998034
ss(I2
I3
I2
I0
I0
tp10
g2
(g3
tp11
Rp12
S'attaquant'
p13
F25.5219164526076
sS'fonce_Strat'
p14
F-1.923926083808326e-11
sS'evite'
p15
F1.1198723710889016e-09
sS'goal'
p16
F-864.7321098967822
ss(I1
I2
I3
I0
I0
tp17
g2
(g3
tp18
Rp19
S'attaquant'
p20
F5.003378039258819e-66
sS'fonce_Strat'
p21
F0.1937147756927851
sS'evite'
p22
F1.5982482361130453e-14
sS'goal'
p23
F395.4985527921869
ss(I3
I3
I2
I1
I0
tp24
g2
(g3
tp25
Rp26
S'attaquant'
p27
F2.840431172993456
sS'goal'
p28
F0.0
sS'evite'
p29
F3.041665821048609
sS'fonce_Strat'
p30
F8.296780196674359
ss(I0
I3
I3
I3
I0
tp31
g2
(g3
tp32
Rp33
S'attaquant'
p34
F599.9999985865157
sS'fonce_Strat'
p35
F199.99999886832197
sS'evite'
p36
F899.8760525565688
sS'goal'
p37
F216.0
ss(I2
I3
I3
I0
I0
tp38
g2
(g3
tp39
Rp40
S'attaquant'
p41
F1.468357914169116e-104
sS'goal'
p42
F357.7805658737869
sS'evite'
p43
F3.1217485503159905e-14
sS'fonce_Strat'
p44
F5.179356178918768e-24
ss(I0
I3
I1
I1
I0
tp45
g2
(g3
tp46
Rp47
S'goal'
p48
F-191.1763667655267
ss(I0
I2
I3
I0
I0
tp49
g2
(g3
tp50
Rp51
S'attaquant'
p52
F0.24178516386485543
sS'fonce_Strat'
p53
F14.190991454530073
sS'evite'
p54
F1.6318306620377236e-30
sg9
F9.380365361201259
ss(I3
I0
I3
I0
I0
tp55
g2
(g3
tp56
Rp57
S'fonce_Strat'
p58
F178.52516352
sS'evite'
p59
F59.04
ss(I1
I0
I3
I1
I0
tp60
g2
(g3
tp61
Rp62
S'fonce_Strat'
p63
F0.0
sS'evite'
p64
F228.928
ss(I2
I3
I1
I3
I0
tp65
g2
(g3
tp66
Rp67
S'attaquant'
p68
F19.40152098040928
sS'fonce_Strat'
p69
F17.39189819022086
sS'evite'
p70
F31.845038777774725
sS'goal'
p71
F530.3483865665099
ss(I3
I2
I3
I1
I0
tp72
g2
(g3
tp73
Rp74
S'attaquant'
p75
F457.05032704
sS'fonce_Strat'
p76
F14.437962062233598
ss(I0
I2
I3
I1
I0
tp77
g2
(g3
tp78
Rp79
S'attaquant'
p80
F218.01791144658256
sS'goal'
p81
F558.7683139584
sS'evite'
p82
F851.6004430041886
sS'fonce_Strat'
p83
F166.445568
ss(I2
I1
I3
I1
I0
tp84
g2
(g3
tp85
Rp86
S'attaquant'
p87
F599.8450064905916
sS'goal'
p88
F597.7332640882225
sS'evite'
p89
F191.71398334960764
sS'fonce_Strat'
p90
F199.99969225948135
ss(I1
I0
I3
I0
I0
tp91
g2
(g3
tp92
Rp93
S'attaquant'
p94
F0.0
sS'fonce_Strat'
p95
F67.232
sS'evite'
p96
F20.97544687659347
ss(I1
I3
I3
I0
I0
tp97
g2
(g3
tp98
Rp99
S'attaquant'
p100
F6.395651631303918e-109
sS'goal'
p101
F438.2256867707408
sS'evite'
p102
F1.4458951468586068e-22
sS'fonce_Strat'
p103
F5.986068427036008e-115
ss(I2
I1
I3
I0
I0
tp104
g2
(g3
tp105
Rp106
S'attaquant'
p107
F1.055102008471457e-46
sS'fonce_Strat'
p108
F99.9594351807927
sS'evite'
p109
F91.4100733652842
sg9
F8.749083259205204
ss(I1
I3
I0
I3
I0
tp110
g2
(g3
tp111
Rp112
S'goal'
p113
F-193.12805232639784
ss(I1
I3
I2
I0
I0
tp114
g2
(g3
tp115
Rp116
S'attaquant'
p117
F0.03170418168748569
sS'fonce_Strat'
p118
F-4.329644264664786e-25
sS'evite'
p119
F7.77067556890291e-08
sS'goal'
p120
F-652.6193612726001
ss(I2
I2
I3
I0
I0
tp121
g2
(g3
tp122
Rp123
S'attaquant'
p124
F3.678965096771869e-70
sS'fonce_Strat'
p125
F0.11013917884634461
sS'evite'
p126
F91.41006540800007
sS'goal'
p127
F414.68516351999995
ss(I1
I3
I3
I1
I0
tp128
g2
(g3
tp129
Rp130
S'attaquant'
p131
F8.911013210899128
sS'goal'
p132
F487.47323572224
sS'evite'
p133
F26.582669996601282
sS'fonce_Strat'
p134
F16.796575712557434
ss(I3
I1
I3
I0
I0
tp135
g2
(g3
tp136
Rp137
S'evite'
p138
F36.0
ss(I2
I2
I3
I1
I0
tp139
g2
(g3
tp140
Rp141
S'attaquant'
p142
F598.8435751112503
sS'fonce_Strat'
p143
F199.99885819965863
sS'evite'
p144
F479.3039889395991
sS'goal'
p145
F589.1913608943107
ss(I1
I3
I2
I3
I0
tp146
g2
(g3
tp147
Rp148
S'attaquant'
p149
F19.401520980540695
sS'fonce_Strat'
p150
F17.39189819022086
sS'evite'
p151
F31.845038777774725
sS'goal'
p152
F316.1565323264
ss(I2
I1
I3
I2
I0
tp153
g2
(g3
tp154
Rp155
S'attaquant'
p156
F292.8
sS'goal'
p157
F120.0
sS'fonce_Strat'
p158
F107.5712
ss(I3
I1
I3
I1
I0
tp159
g2
(g3
tp160
Rp161
S'attaquant'
p162
F485.349410288089
sS'fonce_Strat'
p163
F72.0
ss(I2
I2
I3
I2
I0
tp164
g2
(g3
tp165
Rp166
S'attaquant'
p167
F594.2449861231441
sS'fonce_Strat'
p168
F199.99999999987975
sS'evite'
p169
F160.8064482350311
sS'goal'
p170
F519.4693632
ss(I1
I3
I0
I0
I0
tp171
g2
(g3
tp172
Rp173
S'attaquant'
p174
F4.216922284788766
sS'fonce_Strat'
p175
F0.0
sS'evite'
p176
F0.0
sS'goal'
p177
F-171.7963264
ss(I0
I3
I0
I1
I0
tp178
g2
(g3
tp179
Rp180
S'goal'
p181
F-100.50458537679086
ss(I2
I3
I0
I3
I0
tp182
g2
(g3
tp183
Rp184
S'goal'
p185
F-186.57822683434574
ss(I2
I3
I3
I3
I0
tp186
g2
(g3
tp187
Rp188
g27
F6.8501944998581115
sS'fonce_Strat'
p189
F199.99999999999977
sS'evite'
p190
F558.7683139584
sg9
F1.87233165961365
ss(I0
I3
I2
I1
I0
tp191
g2
(g3
tp192
Rp193
g27
F8.190479941852931
sS'goal'
p194
F-762.4268288000001
sg29
F8.786113546906728
sg30
F6.218645488700251
ss(I2
I3
I2
I1
I0
tp195
g2
(g3
tp196
Rp197
g27
F3.7588537418934833
sS'goal'
p198
F-818.0006134091841
sg29
F4.249838096666993
sg30
F6.149632429093029
ss(I2
I3
I0
I2
I0
tp199
g2
(g3
tp200
Rp201
S'goal'
p202
F-198.20498003189547
ss(I3
I3
I1
I0
I0
tp203
g2
(g3
tp204
Rp205
S'goal'
p206
F-160.0
ss(I2
I3
I1
I2
I0
tp207
g2
(g3
tp208
Rp209
g27
F6.495311808143239
sS'goal'
p210
F-196.30726324224003
sg29
F9.19149672126701
sg30
F4.22289564447148
ss(I1
I3
I3
I2
I0
tp211
g2
(g3
tp212
Rp213
S'attaquant'
p214
F0.7284935415666676
sS'fonce_Strat'
p215
F2.171608641619201
sS'evite'
p216
F9.6446764876333
sS'goal'
p217
F540.5939765155559
ss(I1
I3
I1
I2
I0
tp218
g2
(g3
tp219
Rp220
S'goal'
p221
F-118.84773800724369
ss(I0
I3
I0
I2
I0
tp222
g2
(g3
tp223
Rp224
S'goal'
p225
F-183.2363868827122
ss(I3
I3
I1
I2
I0
tp226
g2
(g3
tp227
Rp228
S'goal'
p229
F-25.89356599998528
ss(I0
I1
I3
I1
I0
tp230
g2
(g3
tp231
Rp232
S'attaquant'
p233
F533.6467531011431
sS'fonce_Strat'
p234
F198.35200716481663
sS'evite'
p235
F851.6011460137427
sS'goal'
p236
F354.24
ss(I2
I3
I3
I2
I0
tp237
g2
(g3
tp238
Rp239
S'attaquant'
p240
F146.4
sS'fonce_Strat'
p241
F199.99650497733361
sS'evite'
p242
F446.04313116672
sg9
F7.637704078229612
ss(I1
I1
I3
I2
I0
tp243
g2
(g3
tp244
Rp245
S'fonce_Strat'
p246
F158.04516352000002
sS'evite'
p247
F20.0
ss(I2
I3
I1
I1
I0
tp248
g2
(g3
tp249
Rp250
S'goal'
p251
F-194.5023930087796
ss(I3
I3
I0
I0
I0
tp252
g2
(g3
tp253
Rp254
S'goal'
p255
F-357.452980224
ss(I0
I1
I3
I0
I0
tp256
g2
(g3
tp257
Rp258
S'attaquant'
p259
F2.067556850258902e-27
sS'fonce_Strat'
p260
F0.00036647912589990076
sS'evite'
p261
F3.082668534869811e-17
sg9
F6.275094326403939
ss(I3
I2
I3
I2
I0
tp262
g2
(g3
tp263
Rp264
S'attaquant'
p265
F100.0
sS'fonce_Strat'
p266
F97.75597605386004
ss(I3
I3
I0
I1
I0
tp267
g2
(g3
tp268
Rp269
S'goal'
p270
F-179.02847999510317
ss(I0
I3
I2
I0
I0
tp271
g2
(g3
tp272
Rp273
S'attaquant'
p274
F0.12375383047743153
sS'fonce_Strat'
p275
F0.0
sS'evite'
p276
F40.95995982654889
sS'goal'
p277
F-852.6766758705797
ss(I1
I1
I3
I0
I0
tp278
g2
(g3
tp279
Rp280
S'attaquant'
p281
F4.3139791545572337e-41
sS'fonce_Strat'
p282
F0.2961795658270373
sS'evite'
p283
F2.34735178367432e-10
sg9
F3.3732964958423444
ss(I0
I3
I3
I1
I0
tp284
g2
(g3
tp285
Rp286
S'attaquant'
p287
F8.910948293753483
sS'fonce_Strat'
p288
F16.72512062191007
sS'evite'
p289
F26.087215394887004
sS'goal'
p290
F399.41376
ss(I3
I3
I1
I1
I0
tp291
g2
(g3
tp292
Rp293
S'goal'
p294
F-51.164434020732166
ss(I2
I0
I3
I0
I0
tp295
g2
(g3
tp296
Rp297
S'attaquant'
p298
F229.4446883733504
sS'fonce_Strat'
p299
F84.53122270171309
sS'evite'
p300
F88.7603407280177
ss(I1
I1
I3
I1
I0
tp301
g2
(g3
tp302
Rp303
S'attaquant'
p304
F599.9999598114592
sS'goal'
p305
F535.5754905599999
sS'evite'
p306
F851.709526330081
sS'fonce_Strat'
p307
F199.99969350421992
ss(I0
I3
I3
I0
I0
tp308
g2
(g3
tp309
Rp310
S'attaquant'
p311
F3.749619113465947e-67
sS'goal'
p312
F582.1575441660435
sS'evite'
p313
F5.808659798741338e-29
sS'fonce_Strat'
p314
F3.321580537508734e-140
ss(I2
I3
I3
I1
I0
tp315
g2
(g3
tp316
Rp317
S'attaquant'
p318
F2.596100005197722
sS'fonce_Strat'
p319
F0.006533421444882022
sS'evite'
p320
F203.04000000000002
sg9
F6.450180421476055
ss(I1
I3
I3
I3
I0
tp321
g2
(g3
tp322
Rp323
S'attaquant'
p324
F599.9738796776892
sS'fonce_Strat'
p325
F199.9999999998497
sS'evite'
p326
F896.3532596775478
sS'goal'
p327
F442.7136
ss(I0
I0
I3
I0
I0
tp328
g2
(g3
tp329
Rp330
S'attaquant'
p331
F0.0
sS'fonce_Strat'
p332
F0.0
sS'evite'
p333
F15.099494399999998
ss(I0
I3
I0
I0
I0
tp334
g2
(g3
tp335
Rp336
S'attaquant'
p337
F16.989042069051806
sS'fonce_Strat'
p338
F0.0
sS'evite'
p339
F0.0
sS'goal'
p340
F-625.872834674688
ss(I3
I3
I1
I3
I0
tp341
g2
(g3
tp342
Rp343
S'attaquant'
p344
F0.09872552314889387
sS'fonce_Strat'
p345
F0.5870316420614214
sS'evite'
p346
F5.203494492573818
sS'goal'
p347
F-185.9796739260011
ss(I1
I3
I2
I2
I0
tp348
g2
(g3
tp349
Rp350
g27
F8.192897542190131
sg30
F9.740040780581722
sg29
F4.818404602431904
sg9
F8.751033872693776
ss(I0
I3
I1
I0
I0
tp351
g2
(g3
tp352
Rp353
S'attaquant'
p354
F9.910283897634983
sS'fonce_Strat'
p355
F-0.1726589292565474
sS'evite'
p356
F0.03198417536601893
sS'goal'
p357
F-660.9342169541735
ss(I3
I3
I3
I1
I0
tp358
g2
(g3
tp359
Rp360
g27
F7.727395121622642
sg30
F4.17730585130411
sg29
F1.3223335421338187
sg9
F7.859229340175967
ss(I1
I3
I1
I0
I0
tp361
g2
(g3
tp362
Rp363
S'attaquant'
p364
F60.415288859647966
sS'fonce_Strat'
p365
F-0.0008424823323172044
sS'evite'
p366
F1.555041987604553e-05
sS'goal'
p367
F-571.7738043372206
ss(I2
I3
I2
I2
I0
tp368
g2
(g3
tp369
Rp370
g27
F3.4237607906241054
sg30
F5.101104428517307
sg29
F8.643932989723734
sg9
F6.169010257513849
ss(I0
I3
I0
I3
I0
tp371
g2
(g3
tp372
Rp373
S'goal'
p374
F0.0
ss(I1
I3
I0
I2
I0
tp375
g2
(g3
tp376
Rp377
S'goal'
p378
F-198.8470784748062
ss(I3
I3
I0
I2
I0
tp379
g2
(g3
tp380
Rp381
S'goal'
p382
F-148.79999999999998
ss(I0
I3
I1
I2
I0
tp383
g2
(g3
tp384
Rp385
S'goal'
p386
F-99.99999999781275
ss(I3
I3
I3
I2
I0
tp387
g2
(g3
tp388
Rp389
g27
F9.075076622720443
sg30
F4.975352897271089
sg29
F6.220961684263592
sg9
F2.19078406868909
ss(I0
I3
I3
I2
I0
tp390
g2
(g3
tp391
Rp392
S'attaquant'
p393
F598.8348384491113
sS'fonce_Strat'
p394
F145.64658629971703
sS'evite'
p395
F851.5956459800275
sg9
F5.871246105991485
ss(I3
I3
I0
I3
I0
tp396
g2
(g3
tp397
Rp398
S'goal'
p399
F-199.99976054757175
ss(I2
I3
I1
I0
I0
tp400
g2
(g3
tp401
Rp402
S'attaquant'
p403
F2.1922190412693188
sS'fonce_Strat'
p404
F4.5342514911838173e-07
sS'evite'
p405
F0.0007203083792438481
sS'goal'
p406
F-185.14176096208416
ss(I1
I3
I1
I1
I0
tp407
g2
(g3
tp408
Rp409
S'goal'
p410
F-178.95140465530963
ss(I3
I3
I2
I2
I0
tp411
g2
(g3
tp412
Rp413
g27
F9.139818211860726
sg30
F3.4448205931313103
sg29
F4.9432944118411335
sg9
F8.235788847366901
ss(I2
I0
I3
I1
I0
tp414
g2
(g3
tp415
Rp416
S'attaquant'
p417
F108.0
sS'fonce_Strat'
p418
F0.0
sS'evite'
p419
F95.84695351986264
ss(I1
I3
I2
I1
I0
tp420
g2
(g3
tp421
Rp422
g27
F6.031069447029328
sS'goal'
p423
F-654.604677955584
sg29
F7.761334748050105
sg30
F3.602930863305577
ss(I1
I3
I0
I1
I0
tp424
g2
(g3
tp425
Rp426
S'goal'
p427
F-100.00637453523261
ss(I2
I3
I0
I1
I0
tp428
g2
(g3
tp429
Rp430
S'goal'
p431
F-198.19856017145972
ss(I2
I3
I0
I0
I0
tp432
g2
(g3
tp433
Rp434
S'attaquant'
p435
F4.6235806375328234
sS'goal'
p436
F-105.4785689827225
sS'evite'
p437
F0.0
ss(I1
I2
I3
I2
I0
tp438
g2
(g3
tp439
Rp440
S'attaquant'
p441
F599.9972123289533
sS'goal'
p442
F599.405788781143
sS'evite'
p443
F198.559056856228
sS'fonce_Strat'
p444
F199.9999999999606
ss(I2
I3
I2
I3
I0
tp445
g2
(g3
tp446
Rp447
S'attaquant'
p448
F0.0259748476051337
sS'fonce_Strat'
p449
F0.2430897315883775
sS'evite'
p450
F3.3960168623199705
sS'goal'
p451
F550.6194476814126
ss(I1
I2
I3
I1
I0
tp452
g2
(g3
tp453
Rp454
S'attaquant'
p455
F599.5267064150992
sS'goal'
p456
F554.7444840307862
sS'evite'
p457
F182.48541312512523
sS'fonce_Strat'
p458
F199.99999984647917
ss.