(dp0
(I2
I2
I3
I0
I1
I0
I0
tp1
ccollections
defaultdict
p2
(c__builtin__
float
p3
tp4
Rp5
S'attaquant'
p6
F-91.41043548854928
sS'fonce_Strat'
p7
F-51.41157544181005
sS'evite'
p8
F-155.78859116263408
sS'goal'
p9
F-68.50989300886211
ss(I1
I2
I3
I1
I2
I0
I0
tp10
g2
(g3
tp11
Rp12
S'attaquant'
p13
F-147.26206746594568
sS'fonce_Strat'
p14
F-37.83037216162964
sS'evite'
p15
F-35.46914983292424
sS'goal'
p16
F-66.72894916613627
ss(I1
I3
I3
I0
I2
I0
I0
tp17
g2
(g3
tp18
Rp19
S'attaquant'
p20
F-45.864250325254616
sS'goal'
p21
F-90.00708809970563
sS'evite'
p22
F-58.57308451069649
sS'fonce_Strat'
p23
F-71.36045521904052
ss(I0
I0
I3
I0
I0
I0
I0
tp24
g2
(g3
tp25
Rp26
S'attaquant'
p27
F5.911017780699154
sS'fonce_Strat'
p28
F49.40024223488109
sS'evite'
p29
F7.547924849643091e-17
sg9
F7.804958230393012
ss(I3
I2
I3
I1
I1
I0
I0
tp30
g2
(g3
tp31
Rp32
S'attaquant'
p33
F49.254400000000004
sS'fonce_Strat'
p34
F16.384
sS'evite'
p35
F9.93508572263492
sg9
F2.371868572545348
ss(I1
I1
I3
I1
I3
I0
I0
tp36
g2
(g3
tp37
Rp38
S'attaquant'
p39
F259.13648020824564
sS'fonce_Strat'
p40
F28.24329713830882
sS'evite'
p41
F215.2441307076965
sg9
F1.3839731691543624
ss(I1
I3
I2
I3
I1
I0
I0
tp42
g2
(g3
tp43
Rp44
S'attaquant'
p45
F-114.77783439940062
sS'goal'
p46
F-55.3671209782019
sS'evite'
p47
F-93.05080758950245
sS'fonce_Strat'
p48
F-97.77621903096053
ss(I2
I1
I3
I1
I2
I0
I0
tp49
g2
(g3
tp50
Rp51
S'attaquant'
p52
F-95.7658204381981
sS'fonce_Strat'
p53
F-91.30903585891362
sS'evite'
p54
F-98.04114595480648
sS'goal'
p55
F-85.0758833639384
ss(I1
I3
I0
I3
I1
I0
I0
tp56
g2
(g3
tp57
Rp58
S'attaquant'
p59
F3.828065356568023
sS'goal'
p60
F-55.323269988856865
sS'evite'
p61
F2.5500343055945818
sS'fonce_Strat'
p62
F3.9569936161717623
ss(I1
I3
I3
I3
I2
I0
I0
tp63
g2
(g3
tp64
Rp65
S'attaquant'
p66
F3.676107996057668
sS'goal'
p67
F-20.0
sS'evite'
p68
F60.20906795008
sS'fonce_Strat'
p69
F26.21004438571631
ss(I0
I3
I3
I1
I1
I0
I0
tp70
g2
(g3
tp71
Rp72
S'attaquant'
p73
F-2.5069977933945666
sS'fonce_Strat'
p74
F-63.99938162962419
sS'evite'
p75
F-81.1034713999211
sg9
F-97.11473908567157
ss(I2
I3
I0
I2
I3
I0
I0
tp76
g2
(g3
tp77
Rp78
S'attaquant'
p79
F-13.974323060667132
sS'goal'
p80
F-2.1491758864512676
sS'evite'
p81
F1.442709620348721
sS'fonce_Strat'
p82
F-64.40100210341936
ss(I1
I3
I2
I0
I1
I0
I0
tp83
g2
(g3
tp84
Rp85
S'attaquant'
p86
F-51.19999194536347
sS'goal'
p87
F-60.18390759867424
sS'evite'
p88
F-99.99721240685018
sS'fonce_Strat'
p89
F-52.41816066262758
ss(I3
I3
I1
I2
I3
I0
I0
tp90
g2
(g3
tp91
Rp92
g79
F-17.196507197834585
sg82
F1.0187157030029006
sg81
F2.0960335650746904
sS'goal'
p93
F1.9251581775122582
ss(I0
I3
I0
I0
I0
I0
I0
tp94
g2
(g3
tp95
Rp96
S'attaquant'
p97
F-199.80066665125537
sS'fonce_Strat'
p98
F-45.50164133728469
sS'evite'
p99
F-91.4100575175408
sS'goal'
p100
F-320.0201286979465
ss(I1
I3
I1
I1
I2
I0
I0
tp101
g2
(g3
tp102
Rp103
S'attaquant'
p104
F-76.32481077188274
sS'fonce_Strat'
p105
F-63.999979431454314
sS'evite'
p106
F-127.28597818779012
sS'goal'
p107
F-99.9999999378346
ss(I2
I3
I3
I1
I2
I0
I0
tp108
g2
(g3
tp109
Rp110
S'attaquant'
p111
F-95.37095813021567
sS'fonce_Strat'
p112
F-148.79721313055074
sS'evite'
p113
F-88.35645437962992
sg9
F-99.99953162969896
ss(I2
I2
I3
I0
I2
I0
I0
tp114
g2
(g3
tp115
Rp116
S'attaquant'
p117
F-51.410065408
sS'fonce_Strat'
p118
F-96.05952724269356
sS'evite'
p119
F-97.87824578744168
sg9
F-230.25425559204965
ss(I1
I2
I3
I1
I3
I0
I0
tp120
g2
(g3
tp121
Rp122
S'attaquant'
p123
F147.6692090826944
sS'fonce_Strat'
p124
F73.787422416868
sS'evite'
p125
F49.75175543220063
sg9
F4.760078954358319
ss(I3
I1
I3
I0
I3
I0
I0
tp126
g2
(g3
tp127
Rp128
S'attaquant'
p129
F6.646016013306169
sS'fonce_Strat'
p130
F0.0
sS'evite'
p131
F-87.67433866056791
sg9
F8.589775938710787
ss(I0
I0
I3
I0
I1
I0
I0
tp132
g2
(g3
tp133
Rp134
S'attaquant'
p135
F0.0
sg82
F5.627641481211247
sS'evite'
p136
F0.0
sg93
F4.433174474311864
ss(I2
I0
I3
I1
I3
I0
I0
tp137
g2
(g3
tp138
Rp139
S'attaquant'
p140
F1.4173714952307865
sS'fonce_Strat'
p141
F6.1046111187467185
sg35
F4.911183955879184
sg9
F8.520761081964825
ss(I3
I3
I2
I2
I2
I0
I0
tp142
g2
(g3
tp143
Rp144
g59
F0.04030684624456652
sg62
F-34.59572829230607
sg61
F0.03638485628588074
sS'goal'
p145
F0.058481096598125316
ss(I3
I2
I3
I1
I2
I0
I0
tp146
g2
(g3
tp147
Rp148
S'attaquant'
p149
F-80.18845734974005
sS'fonce_Strat'
p150
F2.497945080335442
sg35
F1.123636078621161
sg9
F2.657953707260806
ss(I1
I1
I3
I1
I2
I0
I0
tp151
g2
(g3
tp152
Rp153
S'attaquant'
p154
F-195.59834663244217
sS'fonce_Strat'
p155
F-98.85257828661283
sS'evite'
p156
F-141.86671704012204
sg9
F-320.4907175503943
ss(I2
I1
I3
I1
I3
I0
I0
tp157
g2
(g3
tp158
Rp159
S'attaquant'
p160
F-161.57587173942807
sS'goal'
p161
F0.0
sS'evite'
p162
F-85.05708573639843
sS'fonce_Strat'
p163
F-371.3426268786772
ss(I1
I3
I0
I3
I2
I0
I0
tp164
g2
(g3
tp165
Rp166
g59
F-53.607603485867955
sS'goal'
p167
F-7.610629127353239e-18
sg61
F-46.74173443182967
sg62
F-34.38857129442202
ss(I3
I3
I0
I3
I0
I0
I0
tp168
g2
(g3
tp169
Rp170
g140
F-223.0228156222541
sS'goal'
p171
F-399.69662244958516
sg35
F-166.3483472716701
sg141
F-80.71287953518383
ss(I3
I3
I2
I3
I0
I0
I0
tp172
g2
(g3
tp173
Rp174
g140
F-91.41006540800134
sg141
F-331.8005362642603
sg35
F-90.85983955811045
sg9
F-196.3577687871396
ss(I2
I3
I0
I2
I0
I0
I0
tp175
g2
(g3
tp176
Rp177
g140
F-102.75358113307807
sS'goal'
p178
F-398.5324272249238
sg35
F-183.76243882137592
sg141
F-162.815031853658
ss(I1
I3
I2
I0
I0
I0
I0
tp179
g2
(g3
tp180
Rp181
S'attaquant'
p182
F-125.62727619206831
sS'fonce_Strat'
p183
F-104.91671404908541
sS'evite'
p184
F-32.70897155365742
sS'goal'
p185
F-148.41714366660602
ss(I2
I3
I2
I2
I0
I0
I0
tp186
g2
(g3
tp187
Rp188
g140
F-199.91813704592812
sg141
F-99.90169600198655
sg35
F-84.32971455998884
sg9
F-122.1539959902332
ss(I0
I1
I3
I0
I0
I0
I0
tp189
g2
(g3
tp190
Rp191
S'attaquant'
p192
F-20.237010222116858
sS'goal'
p193
F-52.89792069656016
sS'evite'
p194
F-67.23199999973785
sS'fonce_Strat'
p195
F-29.372521697719286
ss(I3
I0
I3
I1
I2
I0
I0
tp196
g2
(g3
tp197
Rp198
S'fonce_Strat'
p199
F40.0
ss(I1
I3
I1
I1
I1
I0
I0
tp200
g2
(g3
tp201
Rp202
S'attaquant'
p203
F-99.99980845179262
sS'fonce_Strat'
p204
F-102.02217050791933
sS'evite'
p205
F-99.99564838137897
sS'goal'
p206
F-40.95980846230258
ss(I2
I3
I3
I1
I3
I0
I0
tp207
g2
(g3
tp208
Rp209
g140
F-199.92020044597803
sS'fonce_Strat'
p210
F-280.10914906112
sS'evite'
p211
F-299.8059850641783
sg9
F-99.54648560130511
ss(I2
I2
I3
I0
I3
I0
I0
tp212
g2
(g3
tp213
Rp214
g79
F7.643291390519181
sS'fonce_Strat'
p215
F-20.0
sg81
F-43.81981005975865
sg93
F9.479592508533193
ss(I1
I2
I3
I1
I0
I0
I0
tp216
g2
(g3
tp217
Rp218
S'attaquant'
p219
F-97.87105768042271
sS'fonce_Strat'
p220
F-84.37252571645837
sS'evite'
p221
F98.1263720046976
sS'goal'
p222
F-75.76037924142892
ss(I0
I1
I3
I1
I2
I0
I0
tp223
g2
(g3
tp224
Rp225
g140
F41.054711914641764
sg141
F2.00912036138366
sS'evite'
p226
F385.57131578630253
sg9
F3.5565566413780836
ss(I2
I0
I3
I1
I2
I0
I0
tp227
g2
(g3
tp228
Rp229
S'attaquant'
p230
F40.0
sS'fonce_Strat'
p231
F20.0
sS'evite'
p232
F20.0
sg9
F9.041215045780309
ss(I2
I3
I1
I2
I3
I0
I0
tp233
g2
(g3
tp234
Rp235
g59
F4.278994156986209
sS'goal'
p236
F-99.92680698981097
sg61
F1.7259412933930243
sg62
F-15.954076530648132
ss(I3
I2
I3
I1
I3
I0
I0
tp237
g2
(g3
tp238
Rp239
S'attaquant'
p240
F112.72097637928259
sS'fonce_Strat'
p241
F30.22848
sg35
F1.5887040736148952
sg9
F1.1592122204404625
ss(I1
I1
I3
I1
I1
I0
I0
tp242
g2
(g3
tp243
Rp244
S'attaquant'
p245
F-73.34217306755647
sS'goal'
p246
F-50.90622769295696
sS'evite'
p247
F-0.9404296648108925
sS'fonce_Strat'
p248
F-35.431996583071665
ss(I2
I3
I2
I3
I3
I0
I0
tp249
g2
(g3
tp250
Rp251
S'attaquant'
p252
F196.40987732057178
sS'fonce_Strat'
p253
F96.48577035813489
sS'evite'
p254
F125.17064630134692
sg9
F6.961753917927883
ss(I3
I3
I3
I2
I2
I0
I0
tp255
g2
(g3
tp256
Rp257
g140
F-99.99854455903505
sg141
F12.037993689224212
sg35
F79.39558072861054
sg9
F4.2399187776441283e-14
ss(I3
I3
I0
I3
I1
I0
I0
tp258
g2
(g3
tp259
Rp260
g140
F-154.27205389471243
sS'goal'
p261
F-223.25130485114272
sg35
F-173.84322279347413
sg141
F-107.10710275438184
ss(I3
I3
I2
I3
I1
I0
I0
tp262
g2
(g3
tp263
Rp264
g140
F-177.1719579529356
sg141
F5.882131534688082e-23
sg35
F-20.0
sg9
F-36.0
ss(I2
I3
I0
I2
I1
I0
I0
tp265
g2
(g3
tp266
Rp267
g140
F-99.7603706907199
sS'goal'
p268
F-144.54575346597267
sg35
F-127.8812005293366
sg141
F-224.03697433360486
ss(I2
I3
I2
I2
I1
I0
I0
tp269
g2
(g3
tp270
Rp271
g140
F-68.60376723824957
sg141
F-93.29831979404318
sg35
F-127.74821268945087
sg9
F-133.87358507705144
ss(I2
I3
I2
I3
I1
I0
I0
tp272
g2
(g3
tp273
Rp274
g140
F-78.95075245260979
sg141
F-92.68619028260017
sg35
F-159.89878727082026
sg9
F-131.05942119449745
ss(I2
I3
I3
I3
I3
I0
I0
tp275
g2
(g3
tp276
Rp277
S'attaquant'
p278
F21.995672075660714
sS'fonce_Strat'
p279
F196.32682028620613
sg35
F48.80068408019207
sg9
F0.005516171884288565
ss(I1
I3
I1
I1
I0
I0
I0
tp280
g2
(g3
tp281
Rp282
S'attaquant'
p283
F-94.46400107711585
sS'fonce_Strat'
p284
F-95.61788155765234
sS'evite'
p285
F-112.65001100206564
sS'goal'
p286
F-59.537398108622966
ss(I2
I3
I3
I1
I0
I0
I0
tp287
g2
(g3
tp288
Rp289
g140
F-94.68956156432296
sS'fonce_Strat'
p290
F-77.71078006604459
sg35
F-48.38525041673811
sg9
F-84.38361677728845
ss(I2
I3
I0
I1
I1
I0
I0
tp291
g2
(g3
tp292
Rp293
g140
F-79.40991252547553
sS'goal'
p294
F-99.9979350349142
sg35
F-99.76099811565878
sS'fonce_Strat'
p295
F-239.69159972115625
ss(I1
I2
I3
I1
I1
I0
I0
tp296
g2
(g3
tp297
Rp298
S'attaquant'
p299
F-99.98033018146195
sS'fonce_Strat'
p300
F-82.60031648110122
sS'evite'
p301
F-21.700805170219454
sS'goal'
p302
F-19.48666913303171
ss(I3
I3
I3
I1
I2
I0
I0
tp303
g2
(g3
tp304
Rp305
g140
F31.763521403502853
sg141
F6.523794004387247
sg35
F25.886901472688862
sg9
F-99.99768237068338
ss(I2
I0
I3
I1
I1
I0
I0
tp306
g2
(g3
tp307
Rp308
S'attaquant'
p309
F28.158419477620328
sS'fonce_Strat'
p310
F108.0
sS'evite'
p311
F207.07259235288785
sg9
F9.353410242463742
ss(I2
I3
I1
I2
I2
I0
I0
tp312
g2
(g3
tp313
Rp314
g140
F-88.1575395003421
sS'goal'
p315
F-0.8335470652544454
sg35
F-99.9741761099291
sg141
F-147.57120127472385
ss(I1
I3
I1
I0
I2
I0
I0
tp316
g2
(g3
tp317
Rp318
S'attaquant'
p319
F-97.74820018694506
sS'goal'
p320
F-91.4358491344744
sS'evite'
p321
F-96.73148280435841
sS'fonce_Strat'
p322
F-93.12817647252157
ss(I3
I3
I0
I3
I3
I0
I0
tp323
g2
(g3
tp324
Rp325
g140
F-17.353317574430754
sS'goal'
p326
F-64.08895787798238
sg35
F-439.0217958064128
sg141
F-239.70567492524043
ss(I0
I3
I1
I0
I1
I0
I0
tp327
g2
(g3
tp328
Rp329
S'attaquant'
p330
F-133.49174606625104
sS'goal'
p331
F-41.13191292971813
sS'evite'
p332
F-97.2342957977307
sS'fonce_Strat'
p333
F43.22246187126833
ss(I0
I2
I3
I1
I2
I0
I0
tp334
g2
(g3
tp335
Rp336
S'attaquant'
p337
F21.773852198214566
sS'fonce_Strat'
p338
F19.095257664716797
sS'evite'
p339
F46.07132889718069
sg9
F2.0678873531864355
ss(I1
I2
I3
I2
I1
I0
I0
tp340
g2
(g3
tp341
Rp342
S'attaquant'
p343
F31.981625381178503
sS'goal'
p344
F10.556781394657284
sS'evite'
p345
F-22.931173825076545
sS'fonce_Strat'
p346
F-83.1867451959509
ss(I1
I1
I3
I1
I0
I0
I0
tp347
g2
(g3
tp348
Rp349
S'attaquant'
p350
F-34.955922564845466
sS'goal'
p351
F-6.052494226494371
sS'evite'
p352
F20.163250290724612
sS'fonce_Strat'
p353
F-66.43368504519164
ss(I3
I3
I3
I3
I1
I0
I0
tp354
g2
(g3
tp355
Rp356
g140
F5.744246767555204e-07
sg141
F4.416287251527054e-10
sg35
F1.2176293508494441e-10
sg9
F0.0028532866335914085
ss(I3
I3
I2
I3
I2
I0
I0
tp357
g2
(g3
tp358
Rp359
g79
F6.272467653322092
sg82
F8.42353430416761
sg81
F7.1670724955736045
sg93
F2.988835603969104
ss(I1
I1
I3
I0
I2
I0
I0
tp360
g2
(g3
tp361
Rp362
S'attaquant'
p363
F-20.002463758685835
sS'fonce_Strat'
p364
F-57.43138269598844
sS'evite'
p365
F-19.68587830502701
sg9
F-8.466926738292448
ss(I1
I3
I2
I0
I2
I0
I0
tp366
g2
(g3
tp367
Rp368
S'attaquant'
p369
F-40.76627794531731
sS'goal'
p370
F-79.91603984449705
sS'evite'
p371
F-195.89349564265208
sS'fonce_Strat'
p372
F-85.7953906991211
ss(I2
I3
I2
I2
I2
I0
I0
tp373
g2
(g3
tp374
Rp375
g79
F-43.94816206557861
sg82
F3.776097218710184
sg81
F6.493134653266145
sg93
F4.27632296844682
ss(I2
I3
I3
I1
I1
I0
I0
tp376
g2
(g3
tp377
Rp378
S'attaquant'
p379
F-99.99149294045458
sS'fonce_Strat'
p380
F-13.934645590967964
sg35
F-174.9720734454508
sg9
F-96.4951124088279
ss(I2
I3
I0
I1
I0
I0
I0
tp381
g2
(g3
tp382
Rp383
g140
F-35.44680372516527
sS'goal'
p384
F-471.84793559921656
sg35
F-35.5078788190647
sg141
F-34.929664401407905
ss(I1
I3
I2
I1
I0
I0
I0
tp385
g2
(g3
tp386
Rp387
S'attaquant'
p388
F-99.6307694642637
sS'fonce_Strat'
p389
F-99.76869279105372
sS'evite'
p390
F-89.2625796894761
sS'goal'
p391
F-99.9514236397476
ss(I0
I1
I3
I1
I0
I0
I0
tp392
g2
(g3
tp393
Rp394
S'attaquant'
p395
F42.2392750631695
sS'fonce_Strat'
p396
F18.451199477469466
sS'evite'
p397
F21.764620161696
sg9
F119.02363838507192
ss(I3
I2
I3
I0
I3
I0
I0
tp398
g2
(g3
tp399
Rp400
g59
F1.176959145359433
sS'fonce_Strat'
p401
F0.0
sg61
F-18.667534504416814
sg145
F1.2040548408443956
ss(I0
I3
I2
I3
I3
I0
I0
tp402
g2
(g3
tp403
Rp404
g140
F21.48212489259796
sg141
F2.6633344550970537
sg35
F132.02468190161076
sg9
F5.573362897060057
ss(I2
I0
I3
I1
I0
I0
I0
tp405
g2
(g3
tp406
Rp407
S'attaquant'
p408
F0.0
sS'fonce_Strat'
p409
F0.0
ss(I2
I3
I1
I2
I1
I0
I0
tp410
g2
(g3
tp411
Rp412
g140
F-143.4957752800221
sS'goal'
p413
F-99.99994978318614
sg35
F-99.9978321759032
sg141
F-85.01375820796899
ss(I2
I3
I3
I2
I1
I0
I0
tp414
g2
(g3
tp415
Rp416
S'attaquant'
p417
F-126.81940853874782
sS'fonce_Strat'
p418
F13.706395022449737
sS'evite'
p419
F-74.92913200367863
sg9
F-99.9999778284255
ss(I0
I3
I1
I0
I0
I0
I0
tp420
g2
(g3
tp421
Rp422
S'attaquant'
p423
F-127.59741820127746
sS'goal'
p424
F-77.88776417276657
sS'evite'
p425
F-106.52521118034576
sS'fonce_Strat'
p426
F-74.79685644938111
ss(I0
I2
I3
I1
I1
I0
I0
tp427
g2
(g3
tp428
Rp429
S'attaquant'
p430
F-9.567949943254341
sS'goal'
p431
F-10.769397436435085
sS'evite'
p432
F-56.47092972108756
sS'fonce_Strat'
p433
F42.63263256330507
ss(I1
I2
I3
I2
I0
I0
I0
tp434
g2
(g3
tp435
Rp436
S'attaquant'
p437
F12.022243864638956
sS'goal'
p438
F0.0
sg35
F56.54777397533563
sS'fonce_Strat'
p439
F22.989860395390533
ss(I1
I3
I3
I3
I3
I0
I0
tp440
g2
(g3
tp441
Rp442
S'attaquant'
p443
F199.9998084363076
sS'goal'
p444
F0.0
sS'evite'
p445
F48.876258676531485
sS'fonce_Strat'
p446
F99.87620599607146
ss(I3
I3
I2
I3
I3
I0
I0
tp447
g2
(g3
tp448
Rp449
g140
F-53.587200504658355
sg141
F-105.31653150769179
sg35
F-167.7768279513237
sg9
F-68.35762838262514
ss(I0
I1
I3
I0
I1
I0
I0
tp450
g2
(g3
tp451
Rp452
S'attaquant'
p453
F-9.13192453011313
sS'fonce_Strat'
p454
F-8.88304038837386
sS'evite'
p455
F6.1762109244268775
sg9
F7.581767992330549
ss(I0
I3
I1
I1
I2
I0
I0
tp456
g2
(g3
tp457
Rp458
g140
F-79.12366873827611
sS'goal'
p459
F-51.19455556592326
sg35
F-135.37855582250788
sg141
F-96.60375437344582
ss(I2
I1
I3
I0
I2
I0
I0
tp460
g2
(g3
tp461
Rp462
S'attaquant'
p463
F-97.23534048294172
sS'fonce_Strat'
p464
F-97.3774260044357
sS'evite'
p465
F-83.222784
sS'goal'
p466
F-86.57878999957863
ss(I3
I3
I0
I0
I3
I0
I0
tp467
g2
(g3
tp468
Rp469
g59
F7.050598886777897
sS'goal'
p470
F-4.762396785137463
sg61
F2.357803446509305
sg62
F-64.44455434727757
ss(I3
I3
I3
I3
I2
I0
I0
tp471
g2
(g3
tp472
Rp473
g140
F7.999925350009408
sg141
F11.253261658294301
sg35
F36.61564191532867
sg9
F0.6674498151732955
ss(I2
I3
I0
I1
I3
I0
I0
tp474
g2
(g3
tp475
Rp476
g59
F-30.44940169636555
sS'goal'
p477
F-102.30225410719791
sg61
F-88.98671607420626
sg62
F-71.90760208403637
ss(I1
I3
I2
I1
I1
I0
I0
tp478
g2
(g3
tp479
Rp480
S'attaquant'
p481
F-99.99792169417267
sS'fonce_Strat'
p482
F-99.85948436392752
sS'evite'
p483
F-65.29420430484797
sS'goal'
p484
F-40.91973434560104
ss(I0
I3
I0
I3
I2
I0
I0
tp485
g2
(g3
tp486
Rp487
S'goal'
p488
F-17.239222128574358
ss(I2
I3
I1
I2
I0
I0
I0
tp489
g2
(g3
tp490
Rp491
g140
F-99.63171740924084
sS'goal'
p492
F-145.00183784038194
sg35
F-99.99999823315294
sg141
F-99.88843796013504
ss(I1
I3
I1
I0
I0
I0
I0
tp493
g2
(g3
tp494
Rp495
S'attaquant'
p496
F-96.75658199478052
sS'fonce_Strat'
p497
F-51.37092346765674
sS'evite'
p498
F-145.1595388122436
sS'goal'
p499
F-79.23705845346076
ss(I2
I3
I3
I2
I0
I0
I0
tp500
g2
(g3
tp501
Rp502
S'attaquant'
p503
F-178.52426076446878
sS'fonce_Strat'
p504
F-86.5981970500037
sS'evite'
p505
F-99.99993560224459
sg9
F-63.974038521673165
ss(I0
I2
I3
I1
I0
I0
I0
tp506
g2
(g3
tp507
Rp508
S'attaquant'
p509
F56.191556534906155
sS'fonce_Strat'
p510
F-12.271078046983089
sg35
F13.19797870058396
sg9
F-35.976750092599694
ss(I1
I2
I3
I2
I3
I0
I0
tp511
g2
(g3
tp512
Rp513
S'attaquant'
p514
F120.04157960564186
sS'goal'
p515
F0.0
sS'evite'
p516
F22.487037695621208
sS'fonce_Strat'
p517
F99.9999999916563
ss(I0
I1
I3
I2
I1
I0
I0
tp518
g2
(g3
tp519
Rp520
g140
F1.9935178227054493
sg141
F5.783548459811037
sS'evite'
p521
F64.0
sg9
F8.468669413696922
ss(I0
I3
I2
I2
I1
I0
I0
tp522
g2
(g3
tp523
Rp524
g140
F-126.52007751311196
sg141
F-80.63300080356024
sg35
F-89.22800526753791
sg9
F-45.11381608572624
ss(I2
I0
I3
I0
I3
I0
I0
tp525
g2
(g3
tp526
Rp527
g140
F7.822422595355768
sg141
F5.575152841486145
sS'evite'
p528
F361.981952
sg9
F9.311978936844326
ss(I2
I3
I1
I3
I2
I0
I0
tp529
g2
(g3
tp530
Rp531
S'attaquant'
p532
F-67.66998129171009
sS'fonce_Strat'
p533
F-50.65683134515191
sS'evite'
p534
F11.831615193041525
sg9
F21.885748786888634
ss(I1
I1
I3
I0
I0
I0
I0
tp535
g2
(g3
tp536
Rp537
S'attaquant'
p538
F0.004879729786299505
sS'goal'
p539
F-23.100345463487127
sS'evite'
p540
F-11.255644714717214
sS'fonce_Strat'
p541
F-7.122775315584272
ss(I3
I2
I3
I2
I3
I0
I0
tp542
g2
(g3
tp543
Rp544
S'fonce_Strat'
p545
F73.78659514335598
ss(I1
I0
I3
I0
I2
I0
I0
tp546
g2
(g3
tp547
Rp548
S'attaquant'
p549
F36.0448
sS'fonce_Strat'
p550
F12.381585408000001
sS'evite'
p551
F133.2368014447652
sg9
F111.75863345681357
ss(I3
I3
I0
I0
I2
I0
I0
tp552
g2
(g3
tp553
Rp554
g59
F-19.046015027004618
sS'goal'
p555
F-144.192633462656
sg61
F-17.532951416183515
sg62
F-57.29390454345154
ss(I0
I3
I3
I2
I3
I0
I0
tp556
g2
(g3
tp557
Rp558
S'attaquant'
p559
F639.8865458067091
sS'fonce_Strat'
p560
F79.09977757435952
sS'evite'
p561
F325.9880012850253
sg9
F8.898260942924018
ss(I2
I3
I0
I1
I2
I0
I0
tp562
g2
(g3
tp563
Rp564
g140
F-162.82013082594904
sS'goal'
p565
F-84.66114833794752
sS'evite'
p566
F-177.12114570242164
sS'fonce_Strat'
p567
F-99.98338467934943
ss(I1
I3
I2
I1
I2
I0
I0
tp568
g2
(g3
tp569
Rp570
S'attaquant'
p571
F-127.99926924913208
sS'fonce_Strat'
p572
F-99.99999997962964
sS'evite'
p573
F-199.9999994210378
sg9
F-99.9999999999973
ss(I1
I3
I1
I0
I1
I0
I0
tp574
g2
(g3
tp575
Rp576
S'attaquant'
p577
F-79.99999966129401
sS'fonce_Strat'
p578
F-99.9496398533935
sS'evite'
p579
F-99.99999962946532
sS'goal'
p580
F-20.97114587706782
ss(I2
I3
I3
I2
I3
I0
I0
tp581
g2
(g3
tp582
Rp583
S'attaquant'
p584
F153.8764393206145
sS'fonce_Strat'
p585
F20.030414425405908
sS'evite'
p586
F195.24107083578986
sg9
F4.908404155531523
ss(I1
I2
I3
I2
I2
I0
I0
tp587
g2
(g3
tp588
Rp589
S'attaquant'
p590
F12.703520978310383
sS'goal'
p591
F32.0
sS'evite'
p592
F4.146690529153666
sS'fonce_Strat'
p593
F-57.089736996548446
ss(I0
I3
I0
I2
I1
I0
I0
tp594
g2
(g3
tp595
Rp596
g140
F4.186798851168601
sS'goal'
p597
F-245.8196334420959
sg35
F4.451184966350825
sg141
F8.683017384372153
ss(I1
I3
I3
I3
I1
I0
I0
tp598
g2
(g3
tp599
Rp600
S'attaquant'
p601
F-127.3720368457521
sS'fonce_Strat'
p602
F-127.71145026008023
sg35
F-206.15766782924098
sg9
F-108.62586105842324
ss(I2
I3
I1
I3
I3
I0
I0
tp603
g2
(g3
tp604
Rp605
S'attaquant'
p606
F494.430337349148
sS'fonce_Strat'
p607
F69.8519120128905
sS'evite'
p608
F231.72418015041563
sg9
F4.525334120045743
ss(I1
I3
I1
I3
I1
I0
I0
tp609
g2
(g3
tp610
Rp611
g140
F-73.65310389117374
sg141
F-43.53572220259865
sg35
F-176.7448203350324
sg9
F-72.86793986796198
ss(I1
I1
I3
I0
I1
I0
I0
tp612
g2
(g3
tp613
Rp614
S'attaquant'
p615
F-36.5619472627223
sS'goal'
p616
F-94.3619191601896
sS'evite'
p617
F-67.232
sS'fonce_Strat'
p618
F-96.48156583184407
ss(I0
I3
I1
I1
I0
I0
I0
tp619
g2
(g3
tp620
Rp621
S'attaquant'
p622
F-132.02757757164994
sS'goal'
p623
F-123.20709382835472
sS'evite'
p624
F-47.66628165138984
sg141
F-50.25097627591991
ss(I3
I2
I3
I2
I2
I0
I0
tp625
g2
(g3
tp626
Rp627
S'attaquant'
p628
F0.0
sS'fonce_Strat'
p629
F17.692301392337708
ss(I3
I3
I1
I3
I3
I0
I0
tp630
g2
(g3
tp631
Rp632
S'attaquant'
p633
F-93.66363125800079
sS'fonce_Strat'
p634
F-192.2977707432517
sS'evite'
p635
F-152.56940844360503
sS'goal'
p636
F-78.23783577843575
ss(I2
I1
I3
I2
I1
I0
I0
tp637
g2
(g3
tp638
Rp639
S'fonce_Strat'
p640
F0.07724181740623669
ss(I1
I3
I0
I0
I2
I0
I0
tp641
g2
(g3
tp642
Rp643
S'attaquant'
p644
F0.0
sS'goal'
p645
F-130.42919757436886
sS'evite'
p646
F-168.29229871058126
sg62
F-23.295171248232673
ss(I0
I3
I3
I2
I2
I0
I0
tp647
g2
(g3
tp648
Rp649
S'attaquant'
p650
F-70.30504739962001
sS'fonce_Strat'
p651
F-184.7767873490518
sS'evite'
p652
F-93.1302158768466
sg9
F-115.04896051573795
ss(I1
I3
I2
I1
I3
I0
I0
tp653
g2
(g3
tp654
Rp655
g140
F-117.04418047902712
sg141
F1.458299637745006
sg35
F2.24510480392397
sg9
F2.4755884178586465
ss(I3
I3
I3
I2
I0
I0
I0
tp656
g2
(g3
tp657
Rp658
g140
F-66.40585483458167
sg141
F-38.47738410976679
sg35
F-97.17352093580266
sg9
F0.00782414249171065
ss(I3
I3
I0
I1
I1
I0
I0
tp659
g2
(g3
tp660
Rp661
g140
F-67.36263284886256
sS'goal'
p662
F-64.6464157085852
sg35
F-72.37311406540738
sg141
F-50.610077119802405
ss(I2
I3
I3
I2
I2
I0
I0
tp663
g2
(g3
tp664
Rp665
g140
F-99.9980049058582
sg141
F-66.51428975095341
sg35
F1.0440073607128632e-05
sg9
F1.6081165390417976e-05
ss(I2
I3
I0
I0
I1
I0
I0
tp666
g2
(g3
tp667
Rp668
S'attaquant'
p669
F-2.667733483107958
sS'fonce_Strat'
p670
F-53.23194377349197
sS'evite'
p671
F-53.936333909297296
sS'goal'
p672
F-294.85218877105206
ss(I0
I3
I0
I2
I2
I0
I0
tp673
g2
(g3
tp674
Rp675
g140
F-58.45377870987945
sS'goal'
p676
F-0.01924935836001725
sg35
F-59.229724727617516
sg141
F-17.67292546186067
ss(I2
I0
I3
I0
I1
I0
I0
tp677
g2
(g3
tp678
Rp679
S'attaquant'
p680
F47.185919999999996
sS'fonce_Strat'
p681
F330.0396971590991
sS'evite'
p682
F167.41286005130115
sg9
F0.7548764614804796
ss(I2
I3
I1
I3
I0
I0
I0
tp683
g2
(g3
tp684
Rp685
g140
F-76.03634478920166
sg141
F-130.481157487029
sg35
F-142.75895200958928
sg9
F-169.40510840970802
ss(I0
I3
I2
I1
I1
I0
I0
tp686
g2
(g3
tp687
Rp688
S'attaquant'
p689
F-107.11918866412832
sS'fonce_Strat'
p690
F-98.14041996507088
sS'evite'
p691
F-175.5100427911168
sS'goal'
p692
F-97.8519818391112
ss(I2
I3
I3
I3
I0
I0
I0
tp693
g2
(g3
tp694
Rp695
S'attaquant'
p696
F0.0
sS'fonce_Strat'
p697
F-42.51616262430204
sg35
F-77.56778038196546
sg9
F0.01333991562991275
ss(I0
I3
I1
I1
I1
I0
I0
tp698
g2
(g3
tp699
Rp700
S'attaquant'
p701
F-79.40991298399165
sS'fonce_Strat'
p702
F-198.92292029140384
sS'evite'
p703
F-50.93069383222146
sS'goal'
p704
F-99.2322657937934
ss(I3
I2
I3
I2
I1
I0
I0
tp705
g2
(g3
tp706
Rp707
S'attaquant'
p708
F0.0
sS'fonce_Strat'
p709
F-47.39262511644672
sg61
F1.9603902413297778
sg145
F1.0852040207003246
ss(I3
I3
I1
I3
I2
I0
I0
tp710
g2
(g3
tp711
Rp712
g140
F-76.89805787310482
sg141
F-94.94559219376694
sg35
F-79.07527253708929
sg9
F-198.83016726485033
ss(I2
I1
I3
I2
I0
I0
I0
tp713
g2
(g3
tp714
Rp715
S'attaquant'
p716
F0.0
sS'fonce_Strat'
p717
F48.824933775330834
ss(I1
I3
I0
I0
I1
I0
I0
tp718
g2
(g3
tp719
Rp720
S'attaquant'
p721
F-87.6225488903748
sS'fonce_Strat'
p722
F-191.06961326219385
sS'evite'
p723
F-86.57878647205658
sS'goal'
p724
F-0.05847497528305949
ss(I1
I3
I3
I2
I2
I0
I0
tp725
g2
(g3
tp726
Rp727
S'attaquant'
p728
F-93.44134889826157
sS'fonce_Strat'
p729
F-36.01600038738274
sS'evite'
p730
F-58.216494110439214
sg9
F-153.8102271999981
ss(I0
I3
I3
I2
I1
I0
I0
tp731
g2
(g3
tp732
Rp733
S'attaquant'
p734
F-83.18145693028033
sS'fonce_Strat'
p735
F-98.79023104962468
sS'evite'
p736
F-56.06731061713991
sg9
F-89.1801420143103
ss(I0
I3
I1
I2
I1
I0
I0
tp737
g2
(g3
tp738
Rp739
g140
F-130.5711504556871
sS'goal'
p740
F-112.58809955981046
sg35
F-100.22675415259076
sg141
F-60.9981285939067
ss(I2
I3
I2
I1
I3
I0
I0
tp741
g2
(g3
tp742
Rp743
g140
F-96.7765738841866
sg141
F-79.49869571236454
sg35
F-104.55411961789397
sg9
F-133.19743123378325
ss(I3
I3
I0
I1
I2
I0
I0
tp744
g2
(g3
tp745
Rp746
g59
F-99.33438682440016
sS'goal'
p747
F-99.07766872013158
sg61
F-113.42531750340416
sg62
F-96.38583247327361
ss(I3
I3
I3
I1
I1
I0
I0
tp748
g2
(g3
tp749
Rp750
g140
F-30.67260282083773
sg141
F-58.21402714836356
sg35
F-97.73954594393976
sg9
F-23.602064881754327
ss(I2
I3
I2
I3
I2
I0
I0
tp751
g2
(g3
tp752
Rp753
S'attaquant'
p754
F-96.49433684581489
sS'fonce_Strat'
p755
F-67.61894845002801
sS'evite'
p756
F-127.25362428985059
sg9
F-90.3451013729308
ss(I2
I3
I0
I0
I2
I0
I0
tp757
g2
(g3
tp758
Rp759
S'attaquant'
p760
F-79.27397054430303
sS'goal'
p761
F-106.21957685100423
sS'evite'
p762
F-97.4890423301932
sS'fonce_Strat'
p763
F-83.2227840002276
ss(I2
I3
I1
I3
I1
I0
I0
tp764
g2
(g3
tp765
Rp766
g140
F-68.37791809920562
sg141
F-157.18764421082818
sg35
F-165.1315588443529
sg9
F-365.4346016327537
ss(I2
I3
I3
I3
I1
I0
I0
tp767
g2
(g3
tp768
Rp769
S'attaquant'
p770
F-89.26257972300202
sS'fonce_Strat'
p771
F-59.38415755816045
sS'evite'
p772
F-36.0
sS'goal'
p773
F0.0
ss(I0
I2
I3
I0
I1
I0
I0
tp774
g2
(g3
tp775
Rp776
S'attaquant'
p777
F98.40548535890429
sS'fonce_Strat'
p778
F-62.19757907488154
sS'evite'
p779
F-58.78788095107624
sg9
F-93.78073095893832
ss(I3
I3
I1
I3
I1
I0
I0
tp780
g2
(g3
tp781
Rp782
g140
F-159.06413385291302
sS'goal'
p783
F-395.40037529468907
sg35
F-98.84688974137109
sg141
F-68.61871749548973
ss(I2
I2
I3
I2
I2
I0
I0
tp784
g2
(g3
tp785
Rp786
S'attaquant'
p787
F5.544983660673495
sS'fonce_Strat'
p788
F21.511724783452216
sg35
F29.547687074687087
sg9
F4.361342327217132
ss(I1
I3
I0
I0
I0
I0
I0
tp789
g2
(g3
tp790
Rp791
S'attaquant'
p792
F-46.649019351039996
sS'fonce_Strat'
p793
F-7.422535325346456
sS'evite'
p794
F-44.38697591242752
sS'goal'
p795
F-147.5712
ss(I1
I3
I3
I2
I3
I0
I0
tp796
g2
(g3
tp797
Rp798
S'attaquant'
p799
F436.9072709550972
sS'fonce_Strat'
p800
F159.52776335513062
sS'evite'
p801
F116.0066233093473
sg9
F1.350660365660386
ss(I2
I3
I1
I0
I1
I0
I0
tp802
g2
(g3
tp803
Rp804
S'attaquant'
p805
F-166.85421068137464
sS'goal'
p806
F-57.59883177749068
sS'evite'
p807
F-142.06989236001567
sS'fonce_Strat'
p808
F-82.66213010743928
ss(I3
I3
I2
I0
I2
I0
I0
tp809
g2
(g3
tp810
Rp811
g140
F-66.46448114608181
sg141
F0.22331672449316836
sg35
F-32.04232938266374
sg9
F-15.414544951520393
ss(I3
I3
I1
I0
I3
I0
I0
tp812
g2
(g3
tp813
Rp814
g59
F-171.96568281355732
sS'goal'
p815
F-93.83173976817663
sg61
F-23.757283980756316
sg62
F-99.84525750187468
ss(I3
I3
I1
I3
I0
I0
I0
tp816
g2
(g3
tp817
Rp818
g140
F-103.61668301447784
sg141
F-100.73288678820751
sg35
F-132.1622388899274
sg9
F-311.2558245023937
ss(I2
I3
I2
I1
I2
I0
I0
tp819
g2
(g3
tp820
Rp821
S'attaquant'
p822
F-99.55084066744948
sS'goal'
p823
F-78.42546691993006
sS'evite'
p824
F-99.99998695361322
sg141
F-115.10096478851361
ss(I1
I3
I0
I1
I2
I0
I0
tp825
g2
(g3
tp826
Rp827
g140
F-225.34835533974496
sS'goal'
p828
F-94.79307346700497
sg35
F-144.92775085285933
sg141
F-76.27776599735714
ss(I3
I3
I0
I1
I3
I0
I0
tp829
g2
(g3
tp830
Rp831
g59
F-43.75412255865103
sS'goal'
p832
F-199.9473098312748
sg61
F0.9976923977384725
sg62
F-88.6853055378085
ss(I0
I3
I3
I1
I2
I0
I0
tp833
g2
(g3
tp834
Rp835
g140
F-146.26506769195953
sg141
F-93.04246210892384
sS'evite'
p836
F-100.748050223278
sg9
F-285.87015055021885
ss(I0
I3
I3
I3
I2
I0
I0
tp837
g2
(g3
tp838
Rp839
S'attaquant'
p840
F39.02932876330004
sS'fonce_Strat'
p841
F31.61350457564789
sS'evite'
p842
F171.38973340665513
sg9
F5.084598986437991
ss(I2
I3
I0
I0
I3
I0
I0
tp843
g2
(g3
tp844
Rp845
g59
F2.0803953999324714
sS'goal'
p846
F-24.581982150547894
sg61
F1.768260054142976
sg62
F1.850647559121132
ss(I3
I3
I3
I3
I0
I0
I0
tp847
g2
(g3
tp848
Rp849
g140
F5.6995846326050666e-15
sg141
F4.312975658397968e-07
sg35
F2.50684348002127e-11
sg9
F1.8181805652136544e-07
ss(I1
I3
I1
I3
I2
I0
I0
tp850
g2
(g3
tp851
Rp852
g140
F-50.04003856523108
sg141
F-92.65534654558277
sg35
F-34.3760417500301
sg9
F-58.99025615924735
ss(I2
I3
I3
I3
I2
I0
I0
tp853
g2
(g3
tp854
Rp855
S'attaquant'
p856
F0.0
sS'fonce_Strat'
p857
F152.51747205298062
sg35
F7.394215919326146
sg9
F6.430834052197744
ss(I0
I3
I2
I1
I2
I0
I0
tp858
g2
(g3
tp859
Rp860
g140
F-110.72954475778508
sg141
F-61.66799586965551
sg35
F-142.26278420234118
sg9
F-92.132975831795
ss(I3
I3
I3
I2
I1
I0
I0
tp861
g2
(g3
tp862
Rp863
g140
F62.91020438570341
sg141
F-99.99999999997479
sg35
F11.405946355754418
sg9
F-92.65714318311016
ss(I2
I2
I3
I2
I3
I0
I0
tp864
g2
(g3
tp865
Rp866
S'attaquant'
p867
F20.00225480172205
sS'goal'
p868
F0.0
sS'evite'
p869
F197.08621502994004
sS'fonce_Strat'
p870
F7.672854615578396
ss(I1
I3
I3
I2
I0
I0
I0
tp871
g2
(g3
tp872
Rp873
g140
F-84.46668398458795
sg141
F-12.391750263486792
sg35
F-86.83210508613229
sg9
F6.4390173907677735
ss(I3
I3
I0
I3
I2
I0
I0
tp874
g2
(g3
tp875
Rp876
g140
F-282.8468997034514
sS'goal'
p877
F-197.08633432469816
sg35
F-99.46450444750977
sg141
F-485.36884762155285
ss(I1
I3
I1
I2
I0
I0
I0
tp878
g2
(g3
tp879
Rp880
g140
F-44.98014226814884
sS'goal'
p881
F-81.2397000970246
sg35
F-94.88461652448179
sg141
F-143.8731128852923
ss(I0
I3
I2
I0
I0
I0
I0
tp882
g2
(g3
tp883
Rp884
S'attaquant'
p885
F-99.99999999167846
sS'fonce_Strat'
p886
F-144.272392606383
sS'evite'
p887
F-95.52343594489739
sS'goal'
p888
F-118.1900497010491
ss(I0
I2
I3
I2
I3
I0
I0
tp889
g2
(g3
tp890
Rp891
S'attaquant'
p892
F217.28969295656356
sS'fonce_Strat'
p893
F44.233951223586466
sS'evite'
p894
F145.34504472886834
sg9
F2.754714832333322
ss(I2
I3
I2
I1
I1
I0
I0
tp895
g2
(g3
tp896
Rp897
g140
F-79.92081401742277
sS'fonce_Strat'
p898
F-98.84926949707695
sg35
F-99.99990458385055
sS'goal'
p899
F-102.35919572836443
ss(I3
I3
I0
I2
I3
I0
I0
tp900
g2
(g3
tp901
Rp902
S'goal'
p903
F-172.51997840217834
ss(I0
I3
I3
I3
I3
I0
I0
tp904
g2
(g3
tp905
Rp906
S'attaquant'
p907
F18.486848551184206
sS'fonce_Strat'
p908
F99.99999326001333
sS'evite'
p909
F199.99987740016883
sS'goal'
p910
F0.0
ss(I1
I1
I3
I2
I0
I0
I0
tp911
g2
(g3
tp912
Rp913
S'fonce_Strat'
p914
F28.192
ss(I1
I0
I3
I0
I1
I0
I0
tp915
g2
(g3
tp916
Rp917
S'attaquant'
p918
F0.0413161624836343
sS'fonce_Strat'
p919
F0.000680534004782358
sS'evite'
p920
F0.8796099781604815
sg9
F0.8409577303225687
ss(I0
I3
I0
I0
I1
I0
I0
tp921
g2
(g3
tp922
Rp923
g140
F-17.83972132448215
sS'fonce_Strat'
p924
F-36.0
sS'evite'
p925
F-48.96000000000001
sS'goal'
p926
F-167.98875648
ss(I2
I2
I3
I2
I0
I0
I0
tp927
g2
(g3
tp928
Rp929
S'attaquant'
p930
F-42.964974106864595
sS'fonce_Strat'
p931
F79.02848430055549
sg35
F28.188538985197187
sS'goal'
p932
F0.0
ss(I1
I3
I3
I2
I1
I0
I0
tp933
g2
(g3
tp934
Rp935
S'attaquant'
p936
F-3.2204138890511445
sS'goal'
p937
F-96.16264334388073
sS'evite'
p938
F-94.31143792854898
sS'fonce_Strat'
p939
F-99.85165535930814
ss(I2
I3
I1
I0
I3
I0
I0
tp940
g2
(g3
tp941
Rp942
g59
F-1.4151900693970194
sS'goal'
p943
F-157.008384
sg61
F-97.56166236941881
sg62
F-83.28347382751437
ss(I2
I0
I3
I0
I2
I0
I0
tp944
g2
(g3
tp945
Rp946
S'attaquant'
p947
F0.01866171646572612
sS'fonce_Strat'
p948
F5.463650277461589
sS'evite'
p949
F5.6859473433329795
sg9
F9.9750304939401
ss(I0
I3
I1
I2
I2
I0
I0
tp950
g2
(g3
tp951
Rp952
g140
F-154.27167463972805
sS'goal'
p953
F-185.19537833130872
sg35
F-68.37746019095516
sg141
F-87.73611560712958
ss(I0
I3
I2
I0
I1
I0
I0
tp954
g2
(g3
tp955
Rp956
S'attaquant'
p957
F-111.05518475514806
sS'goal'
p958
F-78.67020733010106
sS'evite'
p959
F-68.77557982150657
sS'fonce_Strat'
p960
F-56.457752921531096
ss(I2
I3
I2
I1
I0
I0
I0
tp961
g2
(g3
tp962
Rp963
g140
F-87.7678516062573
sS'fonce_Strat'
p964
F-94.46414535122503
sg35
F-110.81636119223249
sg9
F-85.24260052097507
ss(I1
I3
I0
I1
I0
I0
I0
tp965
g2
(g3
tp966
Rp967
S'attaquant'
p968
F-25.46591707957954
sS'goal'
p969
F-392.481253398195
sS'evite'
p970
F-188.93093242850878
sS'fonce_Strat'
p971
F-116.95300509115023
ss(I3
I3
I1
I2
I2
I0
I0
tp972
g2
(g3
tp973
Rp974
g140
F-5.070001506606762
sS'goal'
p975
F-379.61493139334425
sg35
F-91.40171066020609
sg141
F-125.88312514015495
ss(I1
I3
I3
I1
I1
I0
I0
tp976
g2
(g3
tp977
Rp978
S'attaquant'
p979
F-19.7320377447375
sS'fonce_Strat'
p980
F-79.99995980713341
sS'evite'
p981
F-41.89988113290242
sg9
F-94.54617892671357
ss(I1
I3
I3
I0
I1
I0
I0
tp982
g2
(g3
tp983
Rp984
S'attaquant'
p985
F-79.99999986762461
sS'fonce_Strat'
p986
F-83.84525749508933
sS'evite'
p987
F-93.64113069811057
sS'goal'
p988
F-42.83268464575742
ss(I1
I1
I3
I2
I1
I0
I0
tp989
g2
(g3
tp990
Rp991
S'attaquant'
p992
F0.0
sS'fonce_Strat'
p993
F25.005395631773162
ss(I3
I3
I2
I1
I2
I0
I0
tp994
g2
(g3
tp995
Rp996
g140
F-79.02857761654636
sS'goal'
p997
F-62.51122607752251
sg35
F-186.3786500006407
sg141
F-100.25290673189583
ss(I1
I3
I2
I2
I2
I0
I0
tp998
g2
(g3
tp999
Rp1000
g140
F-97.18532285049554
sg141
F-206.1424284792309
sg35
F-346.86999612275866
sg9
F-102.63541113262872
ss(I2
I3
I2
I0
I2
I0
I0
tp1001
g2
(g3
tp1002
Rp1003
S'attaquant'
p1004
F-118.09776852199192
sS'fonce_Strat'
p1005
F-7.22259788738114
sS'evite'
p1006
F-99.97404934821391
sS'goal'
p1007
F-99.99998973380302
ss(I3
I1
I3
I0
I2
I0
I0
tp1008
g2
(g3
tp1009
Rp1010
g140
F9.0907595461152
sS'fonce_Strat'
p1011
F0.0
sS'evite'
p1012
F196.16
sg9
F7.483093121442941
ss(I2
I2
I3
I2
I1
I0
I0
tp1013
g2
(g3
tp1014
Rp1015
S'attaquant'
p1016
F-16.984555896154184
sS'fonce_Strat'
p1017
F0.40140352909397325
sS'evite'
p1018
F0.0
sS'goal'
p1019
F0.0
ss(I2
I3
I1
I0
I2
I0
I0
tp1020
g2
(g3
tp1021
Rp1022
S'attaquant'
p1023
F-138.14495091735813
sS'fonce_Strat'
p1024
F-99.99990227673976
sS'evite'
p1025
F-126.21439999145605
sS'goal'
p1026
F-99.98454659901249
ss(I1
I3
I1
I2
I2
I0
I0
tp1027
g2
(g3
tp1028
Rp1029
g140
F-99.12149930835278
sS'goal'
p1030
F-1.2892851352788564
sg35
F-122.2128052863541
sg141
F-170.0331560679258
ss(I3
I3
I3
I2
I3
I0
I0
tp1031
g2
(g3
tp1032
Rp1033
g79
F3.9952284852996747
sg82
F0.44756336369019223
sg81
F3.6395059643958105
sg93
F3.511959276878706
ss(I3
I3
I1
I2
I0
I0
I0
tp1034
g2
(g3
tp1035
Rp1036
g59
F-89.3398201805431
sS'goal'
p1037
F-83.14227144065023
sg61
F-84.00832511446339
sg62
F-162.1598892769775
ss(I2
I2
I3
I1
I1
I0
I0
tp1038
g2
(g3
tp1039
Rp1040
S'attaquant'
p1041
F-32.33764839709043
sS'fonce_Strat'
p1042
F20.260709783254768
sS'evite'
p1043
F-48.82656948561877
sg9
F37.221231754865435
ss(I1
I3
I0
I1
I1
I0
I0
tp1044
g2
(g3
tp1045
Rp1046
S'attaquant'
p1047
F-29.067304904724693
sS'goal'
p1048
F-83.23213080483526
sS'evite'
p1049
F-67.88481024
sS'fonce_Strat'
p1050
F-244.85921171443653
ss(I0
I1
I3
I1
I1
I0
I0
tp1051
g2
(g3
tp1052
Rp1053
S'attaquant'
p1054
F0.021531461960658242
sS'goal'
p1055
F-62.925872387128514
sS'evite'
p1056
F0.3123597514860891
sS'fonce_Strat'
p1057
F-41.21828026411583
ss(I1
I3
I3
I1
I0
I0
I0
tp1058
g2
(g3
tp1059
Rp1060
S'attaquant'
p1061
F-99.96814500667264
sS'fonce_Strat'
p1062
F-79.243680604009
sS'evite'
p1063
F-197.73618420937265
sg9
F-79.95941037272145
ss(I2
I3
I1
I1
I0
I0
I0
tp1064
g2
(g3
tp1065
Rp1066
g140
F-97.0450884992481
sS'fonce_Strat'
p1067
F-53.47402684641086
sg35
F-166.59573527271723
sS'goal'
p1068
F-125.0726259002145
ss(I3
I3
I2
I1
I3
I0
I0
tp1069
g2
(g3
tp1070
Rp1071
g79
F0.2804119715185803
sg82
F3.1223807814207305
sg81
F3.0790282026633045
sg93
F3.983547800819418
ss(I1
I3
I2
I2
I1
I0
I0
tp1072
g2
(g3
tp1073
Rp1074
g140
F-46.97253498146211
sg141
F-191.32661252225503
sg35
F-91.40473508379031
sg9
F-51.202055595094635
ss(I2
I3
I2
I0
I3
I0
I0
tp1075
g2
(g3
tp1076
Rp1077
g140
F-4.596400440229497
sg141
F-27.004934521104282
sg35
F-97.46525364912875
sg9
F-67.17125525655528
ss(I1
I3
I0
I2
I1
I0
I0
tp1078
g2
(g3
tp1079
Rp1080
g140
F-104.8567624111384
sS'goal'
p1081
F-49.03501252171712
sg35
F-124.39132521256018
sg141
F-85.3318563272912
ss(I0
I3
I3
I0
I1
I0
I0
tp1082
g2
(g3
tp1083
Rp1084
S'attaquant'
p1085
F-97.72830986008043
sS'fonce_Strat'
p1086
F-73.61029859957242
sS'evite'
p1087
F-54.57894480602996
sg9
F-34.89822735287052
ss(I3
I3
I3
I1
I3
I0
I0
tp1088
g2
(g3
tp1089
Rp1090
g79
F3.158694579453178
sg82
F6.8742182413064565
sg81
F6.3762121696528125
sg93
F2.458189978879319
ss(I2
I3
I2
I3
I0
I0
I0
tp1091
g2
(g3
tp1092
Rp1093
g140
F-163.91966212365773
sg141
F-189.63577973833728
sg35
F-136.43872326755184
sg9
F-0.006493662892044119
ss(I0
I3
I0
I1
I2
I0
I0
tp1094
g2
(g3
tp1095
Rp1096
g140
F3.9615066271449266
sS'goal'
p1097
F-59.559179492668385
sg35
F6.6538781890577745
sg141
F-76.09391048638346
ss(I1
I3
I1
I2
I3
I0
I0
tp1098
g2
(g3
tp1099
Rp1100
S'goal'
p1101
F-122.1505681391616
ss(I0
I3
I2
I2
I2
I0
I0
tp1102
g2
(g3
tp1103
Rp1104
g140
F-135.8762070848546
sg141
F-99.94942681383831
sg35
F-239.90391903675544
sg9
F-87.80250133995482
ss(I1
I3
I1
I2
I1
I0
I0
tp1105
g2
(g3
tp1106
Rp1107
g140
F-112.80904216814608
sS'goal'
p1108
F-13.181734293228278
sg35
F-149.0712696148268
sg141
F-115.9678854598678
ss(I3
I3
I1
I2
I1
I0
I0
tp1109
g2
(g3
tp1110
Rp1111
g140
F-187.73530967180437
sS'goal'
p1112
F-94.5706567017318
sg35
F-60.48156499694157
sg141
F-99.98354556208446
ss(I2
I2
I3
I1
I0
I0
I0
tp1113
g2
(g3
tp1114
Rp1115
S'attaquant'
p1116
F-1.1116542112434193
sS'fonce_Strat'
p1117
F-65.65376512705615
sg35
F-72.32546897603255
sg9
F-86.18630501639984
ss(I1
I3
I3
I1
I3
I0
I0
tp1118
g2
(g3
tp1119
Rp1120
g140
F1.8773915833091244
sS'fonce_Strat'
p1121
F0.0
sg35
F-69.93277201969178
sg9
F-39.29479001279336
ss(I2
I3
I1
I1
I1
I0
I0
tp1122
g2
(g3
tp1123
Rp1124
S'attaquant'
p1125
F-79.9999999999997
sS'fonce_Strat'
p1126
F-199.99650234452628
sg35
F-45.03058229817864
sS'goal'
p1127
F-99.99990193071497
ss(I0
I0
I3
I1
I1
I0
I0
tp1128
g2
(g3
tp1129
Rp1130
S'attaquant'
p1131
F195.2
ss(I0
I2
I3
I0
I0
I0
I0
tp1132
g2
(g3
tp1133
Rp1134
S'attaquant'
p1135
F-63.999986835988715
sS'fonce_Strat'
p1136
F-89.7549086231563
sS'evite'
p1137
F-146.37600782365706
sg9
F-93.20114030631942
ss(I3
I3
I1
I1
I1
I0
I0
tp1138
g2
(g3
tp1139
Rp1140
g140
F-65.43783521468433
sS'goal'
p1141
F-60.773001363081974
sg35
F-67.79616906529608
sg141
F-63.222777017836485
ss(I1
I3
I2
I2
I0
I0
I0
tp1142
g2
(g3
tp1143
Rp1144
g140
F-149.82613187239846
sg141
F-59.54367568423867
sg35
F-37.74146918788709
sg9
F-74.09076442114971
ss(I2
I1
I3
I0
I3
I0
I0
tp1145
g2
(g3
tp1146
Rp1147
S'attaquant'
p1148
F63.73657110642688
sS'fonce_Strat'
p1149
F0.0
sS'evite'
p1150
F80.89005499849134
sg9
F7.178801984384215
ss(I1
I3
I0
I2
I0
I0
I0
tp1151
g2
(g3
tp1152
Rp1153
g59
F-72.11006821568624
sS'goal'
p1154
F-330.2217783604892
sg61
F9.383968221362554
sg62
F4.4078666035481575
ss(I0
I3
I2
I1
I0
I0
I0
tp1155
g2
(g3
tp1156
Rp1157
S'attaquant'
p1158
F-69.50656900124294
sS'goal'
p1159
F1.7650945183767988
sS'evite'
p1160
F-75.1140597634621
sg141
F-58.118185280476766
ss(I3
I3
I0
I2
I2
I0
I0
tp1161
g2
(g3
tp1162
Rp1163
g59
F-96.79007676045804
sS'goal'
p1164
F-95.60195349068779
sg61
F-59.03953034934544
sg62
F-98.19633367663131
ss(I2
I3
I0
I3
I2
I0
I0
tp1165
g2
(g3
tp1166
Rp1167
g59
F-32.813216530502174
sS'goal'
p1168
F-0.005531426910566567
sg61
F-32.436059161413624
sg62
F-17.545132650950112
ss(I1
I3
I2
I3
I2
I0
I0
tp1169
g2
(g3
tp1170
Rp1171
g140
F-50.47033873925089
sg141
F-114.22234308130005
sg35
F-102.51930756644855
sg9
F-126.81982655530803
ss(I0
I3
I0
I1
I1
I0
I0
tp1172
g2
(g3
tp1173
Rp1174
S'attaquant'
p1175
F-3.621751317523355
sS'goal'
p1176
F-163.45897318212363
sS'evite'
p1177
F-171.42874767360001
sS'fonce_Strat'
p1178
F-280.4225632793054
ss(I3
I3
I1
I0
I2
I0
I0
tp1179
g2
(g3
tp1180
Rp1181
g59
F-173.16870846513734
sS'goal'
p1182
F-142.63701009305868
sg61
F-9.714013418870579
sg62
F-99.52750019549565
ss(I1
I0
I3
I1
I0
I0
I0
tp1183
g2
(g3
tp1184
Rp1185
S'attaquant'
p1186
F169.71392
sS'fonce_Strat'
p1187
F0.0
sg35
F7.198098187692642
sg9
F1.5544056044298782
ss(I2
I3
I3
I0
I3
I0
I0
tp1188
g2
(g3
tp1189
Rp1190
g59
F-18.65059784337817
sS'fonce_Strat'
p1191
F-48.8
sg61
F-78.29133842510353
sg145
F-17.358358795978983
ss(I2
I2
I3
I1
I3
I0
I0
tp1192
g2
(g3
tp1193
Rp1194
S'attaquant'
p1195
F-399.06417888377507
sS'goal'
p1196
F-20.0
sS'evite'
p1197
F-99.99941539283645
sS'fonce_Strat'
p1198
F-143.5438211825069
ss(I1
I2
I3
I0
I2
I0
I0
tp1199
g2
(g3
tp1200
Rp1201
S'attaquant'
p1202
F-103.22285325419517
sS'fonce_Strat'
p1203
F-77.92383022503948
sS'evite'
p1204
F-162.35556937988042
sg9
F76.28900021692614
ss(I1
I3
I3
I1
I2
I0
I0
tp1205
g2
(g3
tp1206
Rp1207
S'attaquant'
p1208
F-78.32270681653632
sS'fonce_Strat'
p1209
F-99.99999909549473
sS'evite'
p1210
F-94.50251363062128
sg9
F-104.9359077425764
ss(I2
I3
I1
I1
I2
I0
I0
tp1211
g2
(g3
tp1212
Rp1213
S'attaquant'
p1214
F-82.67353734754195
sS'goal'
p1215
F-63.99999656062441
sS'evite'
p1216
F-99.80657600163192
sS'fonce_Strat'
p1217
F-198.55876965546975
ss(I3
I3
I2
I1
I1
I0
I0
tp1218
g2
(g3
tp1219
Rp1220
g140
F-71.97663463929602
sg141
F-41.68459019284507
sg35
F-0.00047444422091178233
sg9
F-127.75965405761185
ss(I0
I2
I3
I2
I2
I0
I0
tp1221
g2
(g3
tp1222
Rp1223
S'attaquant'
p1224
F21.34563629648601
sS'goal'
p1225
F159.69685510714163
sS'evite'
p1226
F499.9998970984104
sS'fonce_Strat'
p1227
F244.9381659146838
ss(I2
I3
I2
I0
I1
I0
I0
tp1228
g2
(g3
tp1229
Rp1230
S'attaquant'
p1231
F-99.99971636263516
sS'fonce_Strat'
p1232
F-160.8227384114647
sS'evite'
p1233
F-127.0337394892828
sS'goal'
p1234
F-108.97522544185813
ss(I1
I3
I0
I2
I3
I0
I0
tp1235
g2
(g3
tp1236
Rp1237
S'goal'
p1238
F0.0
ss(I1
I3
I3
I0
I0
I0
I0
tp1239
g2
(g3
tp1240
Rp1241
S'attaquant'
p1242
F-99.51690203551692
sS'goal'
p1243
F-22.560454012193222
sS'evite'
p1244
F-132.55551619036564
sS'fonce_Strat'
p1245
F-157.69743847064632
ss(I0
I2
I3
I2
I1
I0
I0
tp1246
g2
(g3
tp1247
Rp1248
S'attaquant'
p1249
F91.1343845762953
sS'fonce_Strat'
p1250
F132.26554895849463
sS'evite'
p1251
F125.71291554546922
sg9
F146.4310655870767
ss(I3
I3
I0
I2
I1
I0
I0
tp1252
g2
(g3
tp1253
Rp1254
g140
F-97.42992839380011
sS'goal'
p1255
F-231.1624817006056
sg35
F-96.4874550855804
sg141
F-140.41817230732752
ss(I3
I3
I2
I2
I1
I0
I0
tp1256
g2
(g3
tp1257
Rp1258
g140
F-199.69051499017866
sg141
F-168.10612440497647
sg35
F-172.96323172676034
sg9
F-86.57822720000001
ss(I1
I2
I3
I0
I0
I0
I0
tp1259
g2
(g3
tp1260
Rp1261
S'attaquant'
p1262
F-76.04843322667614
sS'fonce_Strat'
p1263
F-61.097231234493144
sS'evite'
p1264
F-85.23734486268124
sg9
F-32.507094291215424
ss(I2
I3
I0
I3
I1
I0
I0
tp1265
g2
(g3
tp1266
Rp1267
g59
F-120.22447777734041
sS'goal'
p1268
F-75.5035917513923
sg61
F-78.35227227650833
sg62
F-78.32124883163752
ss(I1
I3
I2
I3
I3
I0
I0
tp1269
g2
(g3
tp1270
Rp1271
S'attaquant'
p1272
F188.79035344340005
sS'fonce_Strat'
p1273
F69.8519120128905
sS'evite'
p1274
F135.7009252030542
sg9
F1.5348421967127084
ss(I2
I1
I3
I1
I0
I0
I0
tp1275
g2
(g3
tp1276
Rp1277
S'attaquant'
p1278
F55.41885891744297
sS'fonce_Strat'
p1279
F246.8220305036795
sg35
F244.37516141358964
sg9
F1.0220905830582936
ss(I0
I3
I0
I1
I0
I0
I0
tp1280
g2
(g3
tp1281
Rp1282
g140
F-13.021707290652964
sS'goal'
p1283
F-261.7895509023228
sg35
F-77.2854142308124
sg141
F-111.75225897010695
ss(I1
I0
I3
I1
I1
I0
I0
tp1284
g2
(g3
tp1285
Rp1286
S'attaquant'
p1287
F98.88696237369315
sS'fonce_Strat'
p1288
F0.0
sS'evite'
p1289
F102.5411797998581
sg9
F5.555273773067591
ss(I3
I0
I3
I0
I3
I0
I0
tp1290
g2
(g3
tp1291
Rp1292
S'fonce_Strat'
p1293
F134.464
ss(I3
I1
I3
I1
I3
I0
I0
tp1294
g2
(g3
tp1295
Rp1296
S'attaquant'
p1297
F124.09578811084278
sS'fonce_Strat'
p1298
F5.240731184646122
sS'evite'
p1299
F99.597346816
sg9
F6.33765057964524
ss(I2
I3
I3
I0
I2
I0
I0
tp1300
g2
(g3
tp1301
Rp1302
S'attaquant'
p1303
F-99.80829224810432
sS'fonce_Strat'
p1304
F-79.9999990953743
sS'evite'
p1305
F-102.39996786123913
sS'goal'
p1306
F-99.99999996007675
ss(I2
I2
I3
I1
I2
I0
I0
tp1307
g2
(g3
tp1308
Rp1309
S'attaquant'
p1310
F-60.50659391422403
sS'fonce_Strat'
p1311
F-99.3492513419993
sS'evite'
p1312
F-99.95919796246507
sg9
F-57.02378700502756
ss(I1
I2
I3
I0
I1
I0
I0
tp1313
g2
(g3
tp1314
Rp1315
S'attaquant'
p1316
F-99.4097041896413
sS'fonce_Strat'
p1317
F-86.8165268912739
sS'evite'
p1318
F-98.8194679105832
sg9
F-32.92915872676635
ss(I2
I3
I1
I1
I3
I0
I0
tp1319
g2
(g3
tp1320
Rp1321
g140
F-91.22915576650357
sS'goal'
p1322
F-98.26194091568982
sg35
F-146.33515722482178
sg141
F-150.58596604413418
ss(I3
I3
I2
I0
I3
I0
I0
tp1323
g2
(g3
tp1324
Rp1325
g59
F-19.99989309931587
sg62
F-0.3599904749495334
sg61
F-99.95943510254982
sg145
F-46.95134758461726
ss(I3
I2
I3
I0
I2
I0
I0
tp1326
g2
(g3
tp1327
Rp1328
g59
F2.241862365872644
sg62
F2.2527965682515534
sg61
F4.4064261112363186
sg145
F1.4198533984418438
ss(I3
I3
I1
I1
I3
I0
I0
tp1329
g2
(g3
tp1330
Rp1331
g59
F-87.64198912509401
sg62
F-76.37177168448768
sg61
F-155.4582539857533
sg145
F-72.28597492520538
ss(I3
I3
I3
I3
I3
I0
I0
tp1332
g2
(g3
tp1333
Rp1334
g140
F3.157034215654508
sg141
F286.1930016677785
sg35
F7.033671698354699
sg9
F3.76295107617179e-87
ss(I1
I3
I0
I2
I2
I0
I0
tp1335
g2
(g3
tp1336
Rp1337
g59
F-95.74873691280015
sS'goal'
p1338
F-40.00007536398545
sg61
F-18.520637799273647
sg62
F-108.69371948276873
ss(I2
I1
I3
I0
I1
I0
I0
tp1339
g2
(g3
tp1340
Rp1341
S'attaquant'
p1342
F-38.64903355645982
sS'fonce_Strat'
p1343
F-53.47334417521928
sS'evite'
p1344
F-169.81497546607994
sg9
F-84.43497651870887
ss(I3
I3
I0
I2
I0
I0
I0
tp1345
g2
(g3
tp1346
Rp1347
g59
F-58.51669722192749
sS'goal'
p1348
F-60.750086576590476
sg61
F-40.47818424164037
sg62
F-47.41725295800975
ss(I3
I3
I2
I2
I0
I0
I0
tp1349
g2
(g3
tp1350
Rp1351
g140
F-8.066029155454881
sg141
F-71.07484338810072
sg35
F-67.23007534683434
sg9
F-294.99402527002496
ss(I2
I3
I0
I3
I0
I0
I0
tp1352
g2
(g3
tp1353
Rp1354
g140
F-47.78807552824085
sS'goal'
p1355
F-199.90968925817438
sg35
F-17.657791808712773
sg141
F-79.50119592448954
ss(I2
I1
I3
I1
I1
I0
I0
tp1356
g2
(g3
tp1357
Rp1358
S'attaquant'
p1359
F6.85493367508105
sS'fonce_Strat'
p1360
F-26.961650669911204
sS'evite'
p1361
F-60.22855314821104
sg9
F-35.014248975559106
ss(I1
I0
I3
I1
I2
I0
I0
tp1362
g2
(g3
tp1363
Rp1364
S'attaquant'
p1365
F150.848
ss(I3
I0
I3
I0
I2
I0
I0
tp1366
g2
(g3
tp1367
Rp1368
S'fonce_Strat'
p1369
F96.178065408
ss(I0
I3
I3
I1
I0
I0
I0
tp1370
g2
(g3
tp1371
Rp1372
S'attaquant'
p1373
F-59.04978876273843
sS'goal'
p1374
F-75.12295721528535
sS'evite'
p1375
F-104.4401683293805
sS'fonce_Strat'
p1376
F-35.30923854705858
ss(I3
I1
I3
I1
I2
I0
I0
tp1377
g2
(g3
tp1378
Rp1379
S'attaquant'
p1380
F17.55191970360603
sS'fonce_Strat'
p1381
F64.75077465245492
sS'evite'
p1382
F152.1163217869996
sg9
F2.6829651294471244
ss(I2
I3
I3
I0
I1
I0
I0
tp1383
g2
(g3
tp1384
Rp1385
S'attaquant'
p1386
F-53.41179794762682
sS'goal'
p1387
F-99.87200649757126
sS'evite'
p1388
F-96.54344682023142
sS'fonce_Strat'
p1389
F-119.5644810454595
ss(I1
I3
I0
I1
I3
I0
I0
tp1390
g2
(g3
tp1391
Rp1392
S'goal'
p1393
F-72.0
ss(I2
I3
I0
I2
I2
I0
I0
tp1394
g2
(g3
tp1395
Rp1396
g59
F2.6860487440756637
sS'goal'
p1397
F-1.4435416937222494
sg61
F-72.20569418876133
sg62
F4.195649421940146
ss(I0
I3
I3
I0
I0
I0
I0
tp1398
g2
(g3
tp1399
Rp1400
S'attaquant'
p1401
F-99.99979621340057
sS'fonce_Strat'
p1402
F-84.00920283596353
sS'evite'
p1403
F-80.2259544936932
sS'goal'
p1404
F-96.70299667724251
ss(I3
I3
I3
I0
I2
I0
I0
tp1405
g2
(g3
tp1406
Rp1407
g140
F43.38505709583759
sg141
F7.207521503614659
sg35
F2.6666184266517714
sg9
F5.155323131379112
ss(I1
I3
I1
I1
I3
I0
I0
tp1408
g2
(g3
tp1409
Rp1410
g140
F2.122949081029433
sS'goal'
p1411
F-107.84
sg35
F-45.19783999769233
sg141
F2.3416817061513155
ss(I3
I3
I1
I1
I2
I0
I0
tp1412
g2
(g3
tp1413
Rp1414
g140
F-93.5538961983414
sS'goal'
p1415
F-83.40064175593184
sg35
F-99.99815914231769
sg141
F-138.05696079446886
ss.