(dp0
(I2
I3
I1
I3
I0
tp1
ccollections
defaultdict
p2
(c__builtin__
float
p3
tp4
Rp5
S'attaquant'
p6
F-196.77133849154708
sS'fonce_Strat'
p7
F-199.9999761579602
sS'evite'
p8
F-3.0243925752016008
sS'goal'
p9
F-96.89025878905113
ss(I1
I2
I3
I0
I0
tp10
g2
(g3
tp11
Rp12
g6
F-100.0
sg7
F3.9699500075912283e-20
sg8
F-99.99999999745341
sg9
F-37.5
ss(I0
I2
I3
I0
I0
tp13
g2
(g3
tp14
Rp15
g6
F-99.9999999970897
sg7
F-99.99999999563443
sg8
F-97.65626192092896
sg9
F-6.256102397310315
ss(I2
I3
I3
I1
I0
tp16
g2
(g3
tp17
Rp18
g6
F-199.99999999999858
sg7
F-6.244659423828125
sg8
F-0.19528865814208984
sg9
F1.0061292077256923e-09
ss(I3
I2
I3
I1
I0
tp19
g2
(g3
tp20
Rp21
g6
F6.2530517200343985
sg7
F0.0011414289475374616
sg8
F0.07352722523907339
sg9
F100.7812023158123
ss(I2
I1
I3
I0
I0
tp22
g2
(g3
tp23
Rp24
g6
F-9.373879409395514
sg7
F-99.99999981410068
sg8
F-50.0
sg9
F4.547473508864641e-11
ss(I1
I3
I0
I2
I0
tp25
g2
(g3
tp26
Rp27
g6
F0.2960771526235118
sg7
F-49.68249143451874
sg8
F0.1382812005130388
sg9
F-74.74195828435006
ss(I0
I3
I2
I0
I0
tp28
g2
(g3
tp29
Rp30
g6
F-184.375
sg7
F-96.87576284632087
sg8
F-46.876525855623186
sg9
F-152.9296875
ss(I3
I1
I3
I1
I0
tp31
g2
(g3
tp32
Rp33
g6
F0.14636241484002413
sg7
F1.471781869814508
sg8
F1.5625000000340277
sg9
F100.04882824214292
ss(I2
I2
I3
I2
I0
tp34
g2
(g3
tp35
Rp36
g6
F5.739718509874451e-40
sg7
F4.656541816635429e-08
sg8
F3.2959043979644775
sg9
F-0.00021406433461388166
ss(I1
I3
I3
I3
I0
tp37
g2
(g3
tp38
Rp39
g6
F-99.99999925494194
sg7
F3.4032707042214874e-60
sg8
F-74.71027374339502
sg9
F-93.06640625
ss(I2
I3
I2
I0
I0
tp40
g2
(g3
tp41
Rp42
g6
F-102.63018609257415
sg7
F-1.1714935302732599
sg8
F-200.0
sg9
F-299.993896484375
ss(I0
I1
I3
I1
I0
tp43
g2
(g3
tp44
Rp45
g6
F99.99995450162804
sg7
F0.18159743667820472
sg8
F-75.00000000000568
sg9
F37.54882751418336
ss(I3
I3
I3
I2
I0
tp46
g2
(g3
tp47
Rp48
g6
F0.01220703125
sg7
F-48.04692007601261
sg8
F-49.99999999999999
sg9
F-3.1249985040659567
ss(I1
I1
I3
I0
I0
tp49
g2
(g3
tp50
Rp51
g6
F2.339397053246447e-17
sg7
F-38.25693097896874
sg8
F2.1537845563013996e-16
sg9
F-24.999999999909416
ss(I0
I3
I1
I2
I0
tp52
g2
(g3
tp53
Rp54
g6
F-249.99999999999997
sg7
F-49.99869820661219
sg8
F-99.97844515395761
sg9
F-199.99997578547982
ss(I3
I3
I2
I1
I0
tp55
g2
(g3
tp56
Rp57
g6
F-399.2187501629792
sg7
F-124.99961848362203
sg8
F-99.99999999708962
sg9
F-24.95121918763911
ss(I0
I3
I2
I3
I0
tp58
g2
(g3
tp59
Rp60
g6
F-99.86566988079268
sg7
F150.0
sg8
F2.569293881638188
sg9
F-99.99999999997726
ss(I2
I3
I1
I0
I0
tp61
g2
(g3
tp62
Rp63
g6
F-381.15272521972656
sg7
F-199.99999999708962
sg8
F-6.25
sg9
F-399.9984501337279
ss(I1
I2
I3
I1
I0
tp64
g2
(g3
tp65
Rp66
g6
F0.3906249999999889
sg7
F25.00017285346985
sg8
F6.821488902990593e-11
sg9
F-0.05657672882066825
ss(I0
I3
I0
I1
I0
tp67
g2
(g3
tp68
Rp69
g6
F-43.74999995319809
sg7
F-99.8270768543647
sg8
F-243.71690569069233
sg9
F-399.949550256133
ss(I2
I3
I0
I3
I0
tp70
g2
(g3
tp71
Rp72
g6
F-87.12691771778864
sg7
F0.6347656250244887
sg8
F-212.30188364344613
sg9
F-23.240550216739635
ss(I2
I1
I3
I1
I0
tp73
g2
(g3
tp74
Rp75
g6
F1.601510897112156e-25
sg7
F0.00038146972514210826
sg8
F-18.164062396681402
sg9
F0.000715168425767564
ss(I1
I0
I3
I0
I0
tp76
g2
(g3
tp77
Rp78
g6
F0.001621235075556197
sg7
F0.014475798821867282
sg8
F-12.02089164132093
sg9
F0.0426771091897567
ss(I1
I3
I2
I1
I0
tp79
g2
(g3
tp80
Rp81
g6
F-292.22412109373863
sg7
F-199.80392456054688
sg8
F-299.9999998137355
sg9
F-57.7148377895357
ss(I1
I3
I2
I0
I0
tp82
g2
(g3
tp83
Rp84
g6
F-100.0
sg7
F-199.99999999997726
sg8
F-50.19528865814209
sg9
F-191.7969219473889
ss(I3
I1
I3
I0
I0
tp85
g2
(g3
tp86
Rp87
g6
F76.75659551896076
sg7
F1.504468823282498
sg8
F154.1401237138904
sg9
F273.58044119197643
ss(I2
I2
I3
I1
I0
tp88
g2
(g3
tp89
Rp90
g6
F1.6940529698138975e-19
sg7
F-2.9296874999994116
sg8
F1.5624508261681602
sg9
F15.232853405154856
ss(I1
I3
I3
I2
I0
tp91
g2
(g3
tp92
Rp93
g6
F-37.30463972278173
sg7
F-1.864285110451795e-29
sg8
F-75.0000000007276
sg9
F-37.48016351601393
ss(I3
I2
I3
I2
I0
tp94
g2
(g3
tp95
Rp96
g6
F1.5625210625045636
sg7
F103.1249701976777
sg8
F187.69531250290967
sg9
F98.44350825878789
ss(I0
I1
I3
I2
I0
tp97
g2
(g3
tp98
Rp99
g6
F50.49028208551995
sg7
F3.6763493185166065
sg8
F151.1912498288417
sg9
F4.578122431544667
ss(I0
I3
I1
I3
I0
tp100
g2
(g3
tp101
Rp102
g6
F5.463577348134576e-10
sg7
F-99.9755858962449
sg8
F1.5236088281546742
sg9
F3.739723991542781
ss(I0
I3
I3
I1
I0
tp103
g2
(g3
tp104
Rp105
g6
F-24.999994039524154
sg7
F-0.0003815628147191717
sg8
F-48.43749999999998
sg9
F-296.7742947861552
ss(I3
I3
I2
I2
I0
tp106
g2
(g3
tp107
Rp108
g6
F-200.00610351542693
sg7
F-131.2492354802601
sg8
F-0.1953093335032463
sg9
F-396.87500556965995
ss(I3
I3
I3
I3
I0
tp109
g2
(g3
tp110
Rp111
g6
F1.5878657653273753e-260
sg7
F6.24997615814209
sg8
F-21.873318594656148
sg9
F6.952232450591923e-245
ss(I1
I3
I0
I3
I0
tp112
g2
(g3
tp113
Rp114
S'attaquant'
p115
F1.2000068850601973
sS'fonce_Strat'
p116
F3.348253580454202
sS'evite'
p117
F8.034271520195196
sS'goal'
p118
F0.03602496298845501
ss(I1
I3
I2
I2
I0
tp119
g2
(g3
tp120
Rp121
g6
F-93.7500000001819
sg7
F-52.73436971819971
sg8
F-2.9881719441595562
sg9
F-162.5000101430487
ss(I0
I3
I2
I2
I0
tp122
g2
(g3
tp123
Rp124
g6
F1.062033040238827
sg7
F3.121951221754769
sg8
F-367.3824309371412
sg9
F-481.2500000381988
ss(I3
I3
I3
I1
I0
tp125
g2
(g3
tp126
Rp127
g6
F0.5615239970211405
sg7
F-100.0
sg8
F-199.98778700828552
sg9
F0.17547608588847652
ss(I1
I3
I1
I3
I0
tp128
g2
(g3
tp129
Rp130
g6
F-99.99999981373547
sg7
F-24.51005719177443
sg8
F1.6033934497316328e-21
sg9
F-49.88058025286989
ss(I2
I3
I0
I1
I0
tp131
g2
(g3
tp132
Rp133
g6
F-0.0015256919122050758
sg7
F-99.99990462965802
sg8
F-187.49999943123697
sg9
F-199.94505644062883
ss(I2
I3
I1
I1
I0
tp134
g2
(g3
tp135
Rp136
g6
F-399.9999973922968
sg7
F1.9258638228300024e-32
sg8
F-75.0
sg9
F-181.83586588129435
ss(I1
I2
I3
I2
I0
tp137
g2
(g3
tp138
Rp139
g6
F0.0032097778671414043
sg7
F0.0003874350113618721
sg8
F-0.7812500000000888
sg9
F4.0350278640033474e-26
ss(I0
I2
I3
I2
I0
tp140
g2
(g3
tp141
Rp142
g6
F100.00000025620466
sg7
F99.22179877758026
sg8
F52.59089451646739
sg9
F0.030581606552715367
ss(I2
I3
I0
I2
I0
tp143
g2
(g3
tp144
Rp145
g6
F-99.8023391715833
sg7
F-117.18520264959933
sg8
F-399.2061376107812
sg9
F-99.99923706044675
ss(I0
I3
I0
I0
I0
tp146
g2
(g3
tp147
Rp148
g6
F-2.3748011310432775e-05
sg7
F-199.80468749981816
sg8
F-24.99997871782469
sg9
F-100.00018265421377
ss(I3
I3
I1
I3
I0
tp149
g2
(g3
tp150
Rp151
g6
F-199.98778998851776
sg7
F-0.008225438068620514
sg8
F-99.98779296838624
sg9
F-399.2185592644091
ss(I1
I0
I3
I1
I0
tp152
g2
(g3
tp153
Rp154
S'attaquant'
p155
F100.56132123596325
sS'fonce_Strat'
p156
F7.146044856335212
sS'evite'
p157
F275.8970902185238
sS'goal'
p158
F50.6911087725091
ss(I2
I2
I3
I0
I0
tp159
g2
(g3
tp160
Rp161
g6
F4.7544014580847005e-05
sg7
F0.39062499999982236
sg8
F9.105604182983729e-19
sg9
F-100.0
ss(I1
I3
I3
I1
I0
tp162
g2
(g3
tp163
Rp164
g6
F-4.163336342344337e-15
sg7
F-99.6097564697266
sg8
F-99.1226196754719
sg9
F-296.7742912485848
ss(I3
I2
I3
I3
I0
tp165
g2
(g3
tp166
Rp167
g155
F7.36934011900661
sg156
F54.45764039874892
sg157
F0.04814081816839135
sg158
F7.55514409606789
ss(I2
I1
I3
I2
I0
tp168
g2
(g3
tp169
Rp170
g6
F150.00000114089215
sg7
F1.109583535626032e-08
sg8
F34.57336425894298
sg9
F199.26536036655378
ss(I1
I3
I0
I0
I0
tp171
g2
(g3
tp172
Rp173
g6
F-96.97265625002247
sg7
F-99.9999494291842
sg8
F-5.768026767652944e-06
sg9
F-149.99999403953552
ss(I2
I3
I2
I1
I0
tp174
g2
(g3
tp175
Rp176
g6
F-74.99980926513715
sg7
F-137.49923706054688
sg8
F-198.0483055115087
sg9
F4.5473347611621764e-11
ss(I2
I3
I3
I2
I0
tp177
g2
(g3
tp178
Rp179
g6
F-0.0005368141707151517
sg7
F2.775556238068863e-15
sg8
F-18.749997764828663
sg9
F2.9290953396399042e-242
ss(I1
I1
I3
I2
I0
tp180
g2
(g3
tp181
Rp182
g6
F0.037163000478563385
sg7
F17.379762336596805
sg8
F48.43754775372357
sg9
F0.000894135844133019
ss(I3
I3
I0
I1
I0
tp183
g2
(g3
tp184
Rp185
g6
F-124.9989132303938
sg7
F-337.4969319440159
sg8
F-181.6406206085728
sg9
F0.0010608345355913264
ss(I0
I3
I2
I1
I0
tp186
g2
(g3
tp187
Rp188
g6
F-84.1246724099845
sg7
F-199.97704122054057
sg8
F-137.30468675418848
sg9
F-162.49999741553438
ss(I3
I3
I1
I2
I0
tp189
g2
(g3
tp190
Rp191
g6
F-399.99999999999983
sg7
F-190.6005850038028
sg8
F0.37079453476312474
sg9
F-275.0098939955739
ss(I2
I0
I3
I1
I0
tp192
g2
(g3
tp193
Rp194
g6
F188.16464336119702
sg7
F152.16613678823407
sg8
F149.99999902267348
sg9
F12.45518896902172
ss(I0
I0
I3
I0
I0
tp195
g2
(g3
tp196
Rp197
g6
F-31.002087694136478
sg7
F0.19230630623069844
sg8
F0.07468255836467058
sg9
F-47.64728609516905
ss(I0
I3
I1
I0
I0
tp198
g2
(g3
tp199
Rp200
g6
F-49.609351902472554
sg7
F-100.0
sg8
F-199.9999999999993
sg9
F-299.9977111816406
ss(I2
I3
I3
I0
I0
tp201
g2
(g3
tp202
Rp203
g6
F-99.99847412109375
sg7
F-200.0
sg8
F-2.2737367544323206e-11
sg9
F-49.99999999999998
ss(I0
I3
I3
I2
I0
tp204
g2
(g3
tp205
Rp206
g6
F0.0015660873031286661
sg7
F49.9512208494707
sg8
F-37.4023377429689
sg9
F3.1234726338993823
ss(I1
I3
I1
I2
I0
tp207
g2
(g3
tp208
Rp209
g6
F-117.42882729121519
sg7
F-199.59692902993967
sg8
F-99.99845051126191
sg9
F-314.35432433463575
ss(I2
I3
I2
I3
I0
tp210
g2
(g3
tp211
Rp212
g6
F-0.0012114643823210587
sg7
F-93.77441396936774
sg8
F-62.499618506991084
sg9
F-199.99998807902557
ss(I2
I3
I1
I2
I0
tp213
g2
(g3
tp214
Rp215
g6
F-473.4405577417426
sg7
F-367.94023495167494
sg8
F24.99542385339737
sg9
F-237.4973282101564
ss(I0
I3
I1
I1
I0
tp216
g2
(g3
tp217
Rp218
g6
F-386.6210102682089
sg7
F-1.6309869104528953e-19
sg8
F-499.99847412109375
sg9
F-99.99999999999996
ss(I0
I2
I3
I1
I0
tp219
g2
(g3
tp220
Rp221
g6
F-12.499987939014169
sg7
F0.0003814697949522383
sg8
F98.43750147991273
sg9
F3.027524094801487
ss(I1
I3
I3
I0
I0
tp222
g2
(g3
tp223
Rp224
g6
F-2.3515531211160123e-05
sg7
F-50.1953125
sg8
F-200.0
sg9
F-174.9252114444971
ss(I1
I3
I0
I1
I0
tp225
g2
(g3
tp226
Rp227
g6
F-194.58007807843885
sg7
F-6.0791015621359366
sg8
F-385.1684568460663
sg9
F-236.49898171424294
ss(I2
I2
I3
I3
I0
tp228
g2
(g3
tp229
Rp230
g115
F0.188911616289906
sg116
F93.98321586091416
sg117
F47.02268235004824
sg118
F0.19005036592620506
ss(I3
I3
I2
I3
I0
tp231
g2
(g3
tp232
Rp233
g6
F8.767233404008936e-191
sg7
F4.9867320618848553e-163
sg8
F-199.89953226018514
sg9
F2.368857964471728e-07
ss(I1
I3
I2
I3
I0
tp234
g2
(g3
tp235
Rp236
g6
F-103.02418927894712
sg7
F-1.2191308692308556
sg8
F-196.77133155337287
sg9
F-99.609375
ss(I0
I1
I3
I0
I0
tp237
g2
(g3
tp238
Rp239
g6
F-99.99976167464445
sg7
F-93.75
sg8
F3.9720924670382424e-21
sg9
F-99.99999999709033
ss(I0
I3
I0
I2
I0
tp240
g2
(g3
tp241
Rp242
g115
F6.615600526137339
sg116
F2.4538417437697255
sg117
F8.940280351849044
sg118
F6.910704999486205
ss(I3
I3
I1
I1
I0
tp243
g2
(g3
tp244
Rp245
g6
F-247.06878662127565
sg7
F-87.49990463256836
sg8
F-0.7445841736624548
sg9
F-399.99961553842047
ss(I2
I0
I3
I0
I0
tp246
g2
(g3
tp247
Rp248
g6
F50.00137996118898
sg7
F99.99962747070867
sg8
F-87.44362304407812
sg9
F1.1784639440172326
ss(I1
I1
I3
I1
I0
tp249
g2
(g3
tp250
Rp251
g6
F1.5981674216194008
sg7
F49.99999998835847
sg8
F2.636337303556502
sg9
F0.002625584238735365
ss(I2
I3
I3
I3
I0
tp252
g2
(g3
tp253
Rp254
g6
F-73.43745231628418
sg7
F1.240520129162012e-263
sg8
F-99.99998807907104
sg9
F5e-324
ss(I0
I3
I3
I3
I0
tp255
g2
(g3
tp256
Rp257
g6
F-74.609375
sg7
F5.0487097934144756e-27
sg8
F1.862645149230957e-07
sg9
F-99.13335442547577
ss(I3
I3
I0
I2
I0
tp258
g2
(g3
tp259
Rp260
g6
F-312.35920260253977
sg7
F-399.60018370950877
sg8
F0.2987696407040508
sg9
F0.005369056012990912
ss(I1
I3
I1
I0
I0
tp261
g2
(g3
tp262
Rp263
g6
F-249.993896484375
sg7
F-25.0
sg8
F-200.0
sg9
F-381.2591580674109
ss(I2
I3
I0
I0
I0
tp264
g2
(g3
tp265
Rp266
g6
F-99.99980926513672
sg7
F-24.999952315556584
sg8
F-99.24317267721102
sg9
F-199.7314453121362
ss(I0
I3
I3
I0
I0
tp267
g2
(g3
tp268
Rp269
g6
F-100.0
sg7
F-199.99961853027344
sg8
F-5.996975182068209e-09
sg9
F-296.87499999990905
ss(I3
I3
I0
I3
I0
tp270
g2
(g3
tp271
Rp272
g6
F-399.9999999996362
sg7
F-99.99999999417923
sg8
F-137.41548268441602
sg9
F-0.1953125
ss(I1
I3
I1
I1
I0
tp273
g2
(g3
tp274
Rp275
g6
F-499.99990463256836
sg7
F-99.99997618142498
sg8
F-386.7058363510296
sg9
F-2.775557561562576e-15
ss(I2
I3
I2
I2
I0
tp276
g2
(g3
tp277
Rp278
g6
F-75.00001192093464
sg7
F-24.99923687426552
sg8
F-199.90215301513672
sg9
F-68.74999403952415
ss.